(lp0
(lp1
csympy.core.mul
Mul
p2
(csympy.core.power
Pow
p3
(csympy.functions.elementary.complexes
Abs
p4
(csympy.functions.elementary.trigonometric
cos
p5
(csympy.core.add
Add
p6
(csympy.core.numbers
Float
p7
((I1
S'3243f6a8885a3L'
p8
I-49
I50
tp9
tp10
Rp11
(dp12
S'_prec'
p13
I53
sbcsympy.core.symbol
Symbol
p14
(S'theta'
p15
tp16
Rp17
(dp18
S'_assumptions'
p19
ccopy_reg
_reconstructor
p20
(csympy.core.assumptions
StdFactKB
p21
c__builtin__
dict
p22
(dp23
S'real'
p24
I01
sS'even'
p25
NsS'irrational'
p26
NsS'antihermitian'
p27
NsS'nonpositive'
p28
NsS'composite'
p29
NsS'algebraic'
p30
NsS'zero'
p31
NsS'infinite'
p32
NsS'integer'
p33
NsS'hermitian'
p34
I01
sS'odd'
p35
NsS'imaginary'
p36
I00
sS'prime'
p37
NsS'commutative'
p38
I01
sS'positive'
p39
NsS'negative'
p40
NsS'nonnegative'
p41
NsS'complex'
p42
I01
sS'rational'
p43
NsS'finite'
p44
Nstp45
Rp46
(dp47
S'_generator'
p48
(dp49
g24
I01
ssbsbtp50
Rp51
(dp52
btp53
Rp54
(dp55
btp56
Rp57
(dp58
bcsympy.core.numbers
NegativeOne
p59
(I-1
tp60
Rp61
(dp62
btp63
Rp64
(dp65
bg4
(g6
(g7
((I1
S'3L'
p66
I-2
I2
tp67
tp68
Rp69
(dp70
g13
I53
sbg14
(S'x'
p71
tp72
Rp73
(dp74
g19
g20
(g21
g22
(dp75
g24
I01
sg26
Nsg27
Nsg28
Nsg30
Nsg31
Nsg32
Nsg33
Nsg34
I01
sg35
Nsg36
I00
sg25
Nsg38
I01
sg39
Nsg40
Nsg41
Nsg42
I01
sg43
Nsg44
Nstp76
Rp77
(dp78
g48
(dp79
g24
I01
ssbsbg2
(g7
((I0
S'c49ba5e353f7dL'
p80
I-58
I52
tp81
tp82
Rp83
(dp84
g13
I53
sbg5
(g17
tp85
Rp86
(dp87
btp88
Rp89
(dp90
btp91
Rp92
(dp93
btp94
Rp95
(dp96
btp97
Rp98
(dp99
bag2
(g3
(g4
(csympy.functions.elementary.trigonometric
sin
p100
(g51
tp101
Rp102
(dp103
btp104
Rp105
(dp106
bg61
tp107
Rp108
(dp109
bg4
(g6
(g7
((I0
S'3L'
p110
I-2
I2
tp111
tp112
Rp113
(dp114
g13
I53
sbg2
(g61
g14
(S'y'
p115
tp116
Rp117
(dp118
g19
g20
(g21
g22
(dp119
g24
I01
sS'polar'
p120
Nsg34
I01
sg26
Nsg27
Nsg28
Nsg29
Nsg30
Nsg31
Nsg32
Nsg33
Nsg36
I00
sg35
Nsg25
Nsg38
I01
sg39
Nsg40
Nsg41
Nsg37
Nsg42
I01
sg43
Nsg44
Nstp121
Rp122
(dp123
g48
(dp124
g24
I01
ssbsbtp125
Rp126
(dp127
bg2
(g7
((I0
S'47ae147ae147bL'
p128
I-55
I51
tp129
tp130
Rp131
(dp132
g13
I53
sbg100
(g17
tp133
Rp134
(dp135
btp136
Rp137
(dp138
btp139
Rp140
(dp141
btp142
Rp143
(dp144
btp145
Rp146
(dp147
bag2
(g64
g4
(g6
(g7
((I0
S'3L'
p148
I-2
I2
tp149
tp150
Rp151
(dp152
g13
I53
sbg73
g89
tp153
Rp154
(dp155
btp156
Rp157
(dp158
btp159
Rp160
(dp161
bag2
(g108
g4
(g6
(g7
((I0
S'3L'
p162
I-2
I2
tp163
tp164
Rp165
(dp166
g13
I53
sbg117
g2
(g7
((I1
S'47ae147ae147bL'
p167
I-55
I51
tp168
tp169
Rp170
(dp171
g13
I53
sbg134
tp172
Rp173
(dp174
btp175
Rp176
(dp177
btp178
Rp179
(dp180
btp181
Rp182
(dp183
baa(lp184
g2
(g3
(g4
(g5
(g6
(g7
((I1
S'10c152382d7365L'
p185
I-52
I53
tp186
tp187
Rp188
(dp189
g13
I53
sbg17
tp190
Rp191
(dp192
btp193
Rp194
(dp195
btp196
Rp197
(dp198
bg61
tp199
Rp200
(dp201
bg4
(g6
(g7
((I1
S'3L'
p202
I-2
I2
tp203
tp204
Rp205
(dp206
g13
I53
sbg73
g2
(g7
((I0
S'795810624dd2fL'
p207
I-54
I51
tp208
tp209
Rp210
(dp211
g13
I53
sbg86
tp212
Rp213
(dp214
btp215
Rp216
(dp217
btp218
Rp219
(dp220
btp221
Rp222
(dp223
bag2
(g3
(g4
(g100
(g191
tp224
Rp225
(dp226
btp227
Rp228
(dp229
bg61
tp230
Rp231
(dp232
bg4
(g6
(g7
((I0
S'3L'
p233
I-2
I2
tp234
tp235
Rp236
(dp237
g13
I53
sbg126
g2
(g7
((I0
S'b851eb851eb85L'
p238
I-57
I52
tp239
tp240
Rp241
(dp242
g13
I53
sbg134
tp243
Rp244
(dp245
btp246
Rp247
(dp248
btp249
Rp250
(dp251
btp252
Rp253
(dp254
bag2
(g200
g4
(g6
(g7
((I0
S'3L'
p255
I-2
I2
tp256
tp257
Rp258
(dp259
g13
I53
sbg73
g213
tp260
Rp261
(dp262
btp263
Rp264
(dp265
btp266
Rp267
(dp268
bag2
(g231
g4
(g6
(g7
((I0
S'3L'
p269
I-2
I2
tp270
tp271
Rp272
(dp273
g13
I53
sbg117
g2
(g7
((I1
S'b851eb851eb85L'
p274
I-57
I52
tp275
tp276
Rp277
(dp278
g13
I53
sbg134
tp279
Rp280
(dp281
btp282
Rp283
(dp284
btp285
Rp286
(dp287
btp288
Rp289
(dp290
baa(lp291
g2
(g3
(g4
(g86
tp292
Rp293
(dp294
bg61
tp295
Rp296
(dp297
bg4
(g6
(g7
((I1
S'3L'
p298
I-2
I2
tp299
tp300
Rp301
(dp302
g13
I53
sbg73
g2
(g7
((I0
S'4189374bc6a7fL'
p303
I-53
I51
tp304
tp305
Rp306
(dp307
g13
I53
sbg86
tp308
Rp309
(dp310
btp311
Rp312
(dp313
btp314
Rp315
(dp316
btp317
Rp318
(dp319
bag2
(g3
(g4
(g134
tp320
Rp321
(dp322
bg61
tp323
Rp324
(dp325
bg4
(g6
(g7
((I1
S'3L'
p326
I-2
I2
tp327
tp328
Rp329
(dp330
g13
I53
sbg117
tp331
Rp332
(dp333
btp334
Rp335
(dp336
btp337
Rp338
(dp339
bag2
(g296
g4
(g6
(g7
((I0
S'3L'
p340
I-2
I2
tp341
tp342
Rp343
(dp344
g13
I53
sbg73
g309
tp345
Rp346
(dp347
btp348
Rp349
(dp350
btp351
Rp352
(dp353
bag2
(g324
g4
(g6
(g7
((I0
S'3L'
p354
I-2
I2
tp355
tp356
Rp357
(dp358
g13
I53
sbg117
tp359
Rp360
(dp361
btp362
Rp363
(dp364
btp365
Rp366
(dp367
baa(lp368
g2
(g3
(g4
(g5
(g6
(g7
((I0
S'10c152382d7365L'
p369
I-52
I53
tp370
tp371
Rp372
(dp373
g13
I53
sbg17
tp374
Rp375
(dp376
btp377
Rp378
(dp379
btp380
Rp381
(dp382
bg61
tp383
Rp384
(dp385
bg219
tp386
Rp387
(dp388
bag2
(g3
(g4
(g100
(g375
tp389
Rp390
(dp391
btp392
Rp393
(dp394
bg61
tp395
Rp396
(dp397
bg4
(g6
(g7
((I1
S'3L'
p398
I-2
I2
tp399
tp400
Rp401
(dp402
g13
I53
sbg117
g2
(g7
((I0
S'b851eb851eb85L'
p403
I-57
I52
tp404
tp405
Rp406
(dp407
g13
I53
sbg134
tp408
Rp409
(dp410
btp411
Rp412
(dp413
btp414
Rp415
(dp416
btp417
Rp418
(dp419
bag2
(g384
g264
tp420
Rp421
(dp422
bag2
(g396
g4
(g6
(g7
((I0
S'3L'
p423
I-2
I2
tp424
tp425
Rp426
(dp427
g13
I53
sbg117
g409
tp428
Rp429
(dp430
btp431
Rp432
(dp433
btp434
Rp435
(dp436
baa(lp437
g2
(g3
(g4
(g5
(g6
(g7
((I0
S'3243f6a8885a3L'
p438
I-49
I50
tp439
tp440
Rp441
(dp442
g13
I53
sbg17
tp443
Rp444
(dp445
btp446
Rp447
(dp448
btp449
Rp450
(dp451
bg61
tp452
Rp453
(dp454
bg95
tp455
Rp456
(dp457
bag2
(g3
(g4
(g100
(g444
tp458
Rp459
(dp460
btp461
Rp462
(dp463
bg61
tp464
Rp465
(dp466
bg4
(g6
(g7
((I1
S'3L'
p467
I-2
I2
tp468
tp469
Rp470
(dp471
g13
I53
sbg117
g2
(g7
((I0
S'47ae147ae147bL'
p472
I-55
I51
tp473
tp474
Rp475
(dp476
g13
I53
sbg134
tp477
Rp478
(dp479
btp480
Rp481
(dp482
btp483
Rp484
(dp485
btp486
Rp487
(dp488
bag2
(g453
g157
tp489
Rp490
(dp491
bag2
(g465
g4
(g6
(g7
((I0
S'3L'
p492
I-2
I2
tp493
tp494
Rp495
(dp496
g13
I53
sbg117
g478
tp497
Rp498
(dp499
btp500
Rp501
(dp502
btp503
Rp504
(dp505
baa.