(lp0
(lp1
csympy.core.mul
Mul
p2
(csympy.core.power
Pow
p3
(csympy.core.add
Add
p4
(csympy.core.numbers
One
p5
(I1
tp6
Rp7
(dp8
bg2
(csympy.core.numbers
Float
p9
((I1
S'1L'
p10
I0
I1
tp11
tp12
Rp13
(dp14
S'_prec'
p15
I53
sbg3
(g4
(g7
g2
(g3
(csympy.functions.elementary.trigonometric
cos
p16
(g4
(g9
((I1
S'3243f6a8885a3L'
p17
I-49
I50
tp18
tp19
Rp20
(dp21
g15
I53
sbcsympy.core.symbol
Symbol
p22
(S'theta'
p23
tp24
Rp25
(dp26
S'_assumptions'
p27
ccopy_reg
_reconstructor
p28
(csympy.core.assumptions
StdFactKB
p29
c__builtin__
dict
p30
(dp31
S'real'
p32
I01
sS'even'
p33
NsS'irrational'
p34
NsS'antihermitian'
p35
NsS'nonpositive'
p36
NsS'composite'
p37
NsS'algebraic'
p38
NsS'zero'
p39
NsS'infinite'
p40
NsS'integer'
p41
NsS'hermitian'
p42
I01
sS'odd'
p43
NsS'imaginary'
p44
I00
sS'prime'
p45
NsS'commutative'
p46
I01
sS'positive'
p47
NsS'negative'
p48
NsS'nonnegative'
p49
NsS'complex'
p50
I01
sS'rational'
p51
NsS'finite'
p52
Nstp53
Rp54
(dp55
S'_generator'
p56
(dp57
g32
I01
ssbsbtp58
Rp59
(dp60
btp61
Rp62
(dp63
bcsympy.core.numbers
Integer
p64
(I-2
tp65
Rp66
(dp67
btp68
Rp69
(dp70
bg3
(csympy.functions.elementary.trigonometric
sin
p71
(g59
tp72
Rp73
(dp74
bg64
(I2
tp75
Rp76
(dp77
btp78
Rp79
(dp80
btp81
Rp82
(dp83
btp84
Rp85
(dp86
bcsympy.core.numbers
NegativeOne
p87
(I-1
tp88
Rp89
(dp90
btp91
Rp92
(dp93
bg69
g79
tp94
Rp95
(dp96
btp97
Rp98
(dp99
bcsympy.core.numbers
Rational
p100
(I-1
I2
tp101
Rp102
(dp103
btp104
Rp105
(dp106
bcsympy.functions.elementary.complexes
Abs
p107
(g4
(g9
((I1
S'3L'
p108
I-2
I2
tp109
tp110
Rp111
(dp112
g15
I53
sbg22
(S'x'
p113
tp114
Rp115
(dp116
g27
g28
(g29
g30
(dp117
g32
I01
sg34
Nsg35
Nsg36
Nsg38
Nsg39
Nsg40
Nsg41
Nsg42
I01
sg43
Nsg44
I00
sg33
Nsg46
I01
sg47
Nsg48
Nsg49
Nsg50
I01
sg51
Nsg52
Nstp118
Rp119
(dp120
g56
(dp121
g32
I01
ssbsbg2
(g9
((I0
S'c49ba5e353f7dL'
p122
I-58
I52
tp123
tp124
Rp125
(dp126
g15
I53
sbg16
(g25
tp127
Rp128
(dp129
btp130
Rp131
(dp132
btp133
Rp134
(dp135
btp136
Rp137
(dp138
btp139
Rp140
(dp141
bag2
(g3
(g4
(g7
g2
(g9
((I1
S'1L'
p142
I0
I1
tp143
tp144
Rp145
(dp146
g15
I53
sbg92
tp147
Rp148
(dp149
btp150
Rp151
(dp152
bg102
tp153
Rp154
(dp155
bg107
(g4
(g9
((I0
S'3L'
p156
I-2
I2
tp157
tp158
Rp159
(dp160
g15
I53
sbg2
(g89
g22
(S'y'
p161
tp162
Rp163
(dp164
g27
g28
(g29
g30
(dp165
g32
I01
sS'polar'
p166
Nsg42
I01
sg34
Nsg35
Nsg36
Nsg37
Nsg38
Nsg39
Nsg40
Nsg41
Nsg44
I00
sg43
Nsg33
Nsg46
I01
sg47
Nsg48
Nsg49
Nsg45
Nsg50
I01
sg51
Nsg52
Nstp167
Rp168
(dp169
g56
(dp170
g32
I01
ssbsbtp171
Rp172
(dp173
bg2
(g9
((I0
S'47ae147ae147bL'
p174
I-55
I51
tp175
tp176
Rp177
(dp178
g15
I53
sbg71
(g25
tp179
Rp180
(dp181
btp182
Rp183
(dp184
btp185
Rp186
(dp187
btp188
Rp189
(dp190
btp191
Rp192
(dp193
bag2
(g105
g107
(g4
(g9
((I0
S'3L'
p194
I-2
I2
tp195
tp196
Rp197
(dp198
g15
I53
sbg115
g131
tp199
Rp200
(dp201
btp202
Rp203
(dp204
btp205
Rp206
(dp207
bag2
(g154
g107
(g4
(g9
((I0
S'3L'
p208
I-2
I2
tp209
tp210
Rp211
(dp212
g15
I53
sbg163
g2
(g9
((I1
S'47ae147ae147bL'
p213
I-55
I51
tp214
tp215
Rp216
(dp217
g15
I53
sbg180
tp218
Rp219
(dp220
btp221
Rp222
(dp223
btp224
Rp225
(dp226
btp227
Rp228
(dp229
baa(lp230
g2
(g3
(g4
(g7
g2
(g9
((I1
S'1L'
p231
I0
I1
tp232
tp233
Rp234
(dp235
g15
I53
sbg3
(g4
(g7
g2
(g3
(g16
(g4
(g9
((I1
S'10c152382d7365L'
p236
I-52
I53
tp237
tp238
Rp239
(dp240
g15
I53
sbg25
tp241
Rp242
(dp243
btp244
Rp245
(dp246
bg66
tp247
Rp248
(dp249
bg3
(g71
(g242
tp250
Rp251
(dp252
bg76
tp253
Rp254
(dp255
btp256
Rp257
(dp258
btp259
Rp260
(dp261
bg89
tp262
Rp263
(dp264
bg248
g254
tp265
Rp266
(dp267
btp268
Rp269
(dp270
bg102
tp271
Rp272
(dp273
bg107
(g4
(g9
((I1
S'3L'
p274
I-2
I2
tp275
tp276
Rp277
(dp278
g15
I53
sbg115
g2
(g9
((I0
S'795810624dd2fL'
p279
I-54
I51
tp280
tp281
Rp282
(dp283
g15
I53
sbg128
tp284
Rp285
(dp286
btp287
Rp288
(dp289
btp290
Rp291
(dp292
btp293
Rp294
(dp295
bag2
(g3
(g4
(g7
g2
(g9
((I1
S'1L'
p296
I0
I1
tp297
tp298
Rp299
(dp300
g15
I53
sbg263
tp301
Rp302
(dp303
btp304
Rp305
(dp306
bg102
tp307
Rp308
(dp309
bg107
(g4
(g9
((I0
S'3L'
p310
I-2
I2
tp311
tp312
Rp313
(dp314
g15
I53
sbg172
g2
(g9
((I0
S'b851eb851eb85L'
p315
I-57
I52
tp316
tp317
Rp318
(dp319
g15
I53
sbg180
tp320
Rp321
(dp322
btp323
Rp324
(dp325
btp326
Rp327
(dp328
btp329
Rp330
(dp331
bag2
(g272
g107
(g4
(g9
((I0
S'3L'
p332
I-2
I2
tp333
tp334
Rp335
(dp336
g15
I53
sbg115
g285
tp337
Rp338
(dp339
btp340
Rp341
(dp342
btp343
Rp344
(dp345
bag2
(g308
g107
(g4
(g9
((I0
S'3L'
p346
I-2
I2
tp347
tp348
Rp349
(dp350
g15
I53
sbg163
g2
(g9
((I1
S'b851eb851eb85L'
p351
I-57
I52
tp352
tp353
Rp354
(dp355
g15
I53
sbg180
tp356
Rp357
(dp358
btp359
Rp360
(dp361
btp362
Rp363
(dp364
btp365
Rp366
(dp367
baa(lp368
g2
(g3
(g4
(g7
g2
(g9
((I1
S'1L'
p369
I0
I1
tp370
tp371
Rp372
(dp373
g15
I53
sbg3
(g4
(g7
g2
(g3
(g128
g66
tp374
Rp375
(dp376
bg3
(g180
g76
tp377
Rp378
(dp379
btp380
Rp381
(dp382
btp383
Rp384
(dp385
bg89
tp386
Rp387
(dp388
bg375
g378
tp389
Rp390
(dp391
btp392
Rp393
(dp394
bg102
tp395
Rp396
(dp397
bg107
(g4
(g9
((I1
S'3L'
p398
I-2
I2
tp399
tp400
Rp401
(dp402
g15
I53
sbg115
g2
(g9
((I0
S'4189374bc6a7fL'
p403
I-53
I51
tp404
tp405
Rp406
(dp407
g15
I53
sbg128
tp408
Rp409
(dp410
btp411
Rp412
(dp413
btp414
Rp415
(dp416
btp417
Rp418
(dp419
bag2
(g3
(g4
(g7
g2
(g9
((I1
S'1L'
p420
I0
I1
tp421
tp422
Rp423
(dp424
g15
I53
sbg387
tp425
Rp426
(dp427
btp428
Rp429
(dp430
bg102
tp431
Rp432
(dp433
bg107
(g4
(g9
((I1
S'3L'
p434
I-2
I2
tp435
tp436
Rp437
(dp438
g15
I53
sbg163
tp439
Rp440
(dp441
btp442
Rp443
(dp444
btp445
Rp446
(dp447
bag2
(g396
g107
(g4
(g9
((I0
S'3L'
p448
I-2
I2
tp449
tp450
Rp451
(dp452
g15
I53
sbg115
g409
tp453
Rp454
(dp455
btp456
Rp457
(dp458
btp459
Rp460
(dp461
bag2
(g432
g107
(g4
(g9
((I0
S'3L'
p462
I-2
I2
tp463
tp464
Rp465
(dp466
g15
I53
sbg163
tp467
Rp468
(dp469
btp470
Rp471
(dp472
btp473
Rp474
(dp475
baa(lp476
g2
(g3
(g4
(g7
g2
(g9
((I1
S'1L'
p477
I0
I1
tp478
tp479
Rp480
(dp481
g15
I53
sbg3
(g4
(g7
g2
(g3
(g16
(g4
(g9
((I0
S'10c152382d7365L'
p482
I-52
I53
tp483
tp484
Rp485
(dp486
g15
I53
sbg25
tp487
Rp488
(dp489
btp490
Rp491
(dp492
bg66
tp493
Rp494
(dp495
bg3
(g71
(g488
tp496
Rp497
(dp498
bg76
tp499
Rp500
(dp501
btp502
Rp503
(dp504
btp505
Rp506
(dp507
bg89
tp508
Rp509
(dp510
bg494
g500
tp511
Rp512
(dp513
btp514
Rp515
(dp516
bg102
tp517
Rp518
(dp519
bg291
tp520
Rp521
(dp522
bag2
(g3
(g4
(g7
g2
(g9
((I1
S'1L'
p523
I0
I1
tp524
tp525
Rp526
(dp527
g15
I53
sbg509
tp528
Rp529
(dp530
btp531
Rp532
(dp533
bg102
tp534
Rp535
(dp536
bg107
(g4
(g9
((I1
S'3L'
p537
I-2
I2
tp538
tp539
Rp540
(dp541
g15
I53
sbg163
g2
(g9
((I0
S'b851eb851eb85L'
p542
I-57
I52
tp543
tp544
Rp545
(dp546
g15
I53
sbg180
tp547
Rp548
(dp549
btp550
Rp551
(dp552
btp553
Rp554
(dp555
btp556
Rp557
(dp558
bag2
(g518
g341
tp559
Rp560
(dp561
bag2
(g535
g107
(g4
(g9
((I0
S'3L'
p562
I-2
I2
tp563
tp564
Rp565
(dp566
g15
I53
sbg163
g548
tp567
Rp568
(dp569
btp570
Rp571
(dp572
btp573
Rp574
(dp575
baa(lp576
g2
(g3
(g4
(g7
g2
(g9
((I1
S'1L'
p577
I0
I1
tp578
tp579
Rp580
(dp581
g15
I53
sbg3
(g4
(g7
g2
(g3
(g16
(g4
(g9
((I0
S'3243f6a8885a3L'
p582
I-49
I50
tp583
tp584
Rp585
(dp586
g15
I53
sbg25
tp587
Rp588
(dp589
btp590
Rp591
(dp592
bg66
tp593
Rp594
(dp595
bg3
(g71
(g588
tp596
Rp597
(dp598
bg76
tp599
Rp600
(dp601
btp602
Rp603
(dp604
btp605
Rp606
(dp607
bg89
tp608
Rp609
(dp610
bg594
g600
tp611
Rp612
(dp613
btp614
Rp615
(dp616
bg102
tp617
Rp618
(dp619
bg137
tp620
Rp621
(dp622
bag2
(g3
(g4
(g7
g2
(g9
((I1
S'1L'
p623
I0
I1
tp624
tp625
Rp626
(dp627
g15
I53
sbg609
tp628
Rp629
(dp630
btp631
Rp632
(dp633
bg102
tp634
Rp635
(dp636
bg107
(g4
(g9
((I1
S'3L'
p637
I-2
I2
tp638
tp639
Rp640
(dp641
g15
I53
sbg163
g2
(g9
((I0
S'47ae147ae147bL'
p642
I-55
I51
tp643
tp644
Rp645
(dp646
g15
I53
sbg180
tp647
Rp648
(dp649
btp650
Rp651
(dp652
btp653
Rp654
(dp655
btp656
Rp657
(dp658
bag2
(g618
g203
tp659
Rp660
(dp661
bag2
(g635
g107
(g4
(g9
((I0
S'3L'
p662
I-2
I2
tp663
tp664
Rp665
(dp666
g15
I53
sbg163
g648
tp667
Rp668
(dp669
btp670
Rp671
(dp672
btp673
Rp674
(dp675
baa.