(lp0
(lp1
csympy.core.mul
Mul
p2
(csympy.core.power
Pow
p3
(csympy.functions.elementary.complexes
Abs
p4
(csympy.functions.elementary.trigonometric
cos
p5
(csympy.core.add
Add
p6
(csympy.core.numbers
Float
p7
((I1
S'3243f6a8885a3L'
p8
I-49
I50
tp9
tp10
Rp11
(dp12
S'_prec'
p13
I53
sbcsympy.core.symbol
Symbol
p14
(S'theta'
p15
tp16
Rp17
(dp18
S'_assumptions'
p19
ccopy_reg
_reconstructor
p20
(csympy.core.assumptions
StdFactKB
p21
c__builtin__
dict
p22
(dp23
S'real'
p24
I01
sS'prime'
p25
NsS'irrational'
p26
NsS'antihermitian'
p27
NsS'nonpositive'
p28
NsS'composite'
p29
NsS'algebraic'
p30
NsS'zero'
p31
NsS'infinite'
p32
NsS'integer'
p33
NsS'hermitian'
p34
I01
sS'odd'
p35
NsS'imaginary'
p36
I00
sS'even'
p37
NsS'commutative'
p38
I01
sS'positive'
p39
NsS'negative'
p40
NsS'nonnegative'
p41
NsS'complex'
p42
I01
sS'rational'
p43
NsS'finite'
p44
Nstp45
Rp46
(dp47
S'_generator'
p48
(dp49
g24
I01
ssbsbtp50
Rp51
(dp52
btp53
Rp54
(dp55
btp56
Rp57
(dp58
bcsympy.core.numbers
NegativeOne
p59
(I-1
tp60
Rp61
(dp62
btp63
Rp64
(dp65
bg4
(g6
(g7
((I1
S'3L'
p66
I-2
I2
tp67
tp68
Rp69
(dp70
g13
I53
sbg14
(S'x'
p71
tp72
Rp73
(dp74
g19
g20
(g21
g22
(dp75
g24
I01
sS'polar'
p76
Nsg26
Nsg27
Nsg28
Nsg30
Nsg31
Nsg32
Nsg33
Nsg34
I01
sg35
Nsg36
I00
sg37
Nsg38
I01
sg39
Nsg40
Nsg41
Nsg42
I01
sg43
Nsg44
Nstp77
Rp78
(dp79
g48
(dp80
g24
I01
ssbsbg2
(g7
((I0
S'c49ba5e353f7dL'
p81
I-58
I52
tp82
tp83
Rp84
(dp85
g13
I53
sbg5
(g17
tp86
Rp87
(dp88
btp89
Rp90
(dp91
btp92
Rp93
(dp94
btp95
Rp96
(dp97
btp98
Rp99
(dp100
bag2
(g3
(g4
(csympy.functions.elementary.trigonometric
sin
p101
(g51
tp102
Rp103
(dp104
btp105
Rp106
(dp107
bg61
tp108
Rp109
(dp110
bg4
(g6
(g7
((I0
S'3L'
p111
I-2
I2
tp112
tp113
Rp114
(dp115
g13
I53
sbg2
(g61
g14
(S'y'
p116
tp117
Rp118
(dp119
g19
g20
(g21
g22
(dp120
g24
I01
sg76
Nsg34
I01
sg26
Nsg27
Nsg28
Nsg29
Nsg30
Nsg31
Nsg32
Nsg33
Nsg36
I00
sg35
Nsg37
Nsg38
I01
sg39
Nsg40
Nsg41
Nsg25
Nsg42
I01
sg43
Nsg44
Nstp121
Rp122
(dp123
g48
(dp124
g24
I01
ssbsbtp125
Rp126
(dp127
bg2
(g7
((I0
S'47ae147ae147bL'
p128
I-55
I51
tp129
tp130
Rp131
(dp132
g13
I53
sbg101
(g17
tp133
Rp134
(dp135
btp136
Rp137
(dp138
btp139
Rp140
(dp141
btp142
Rp143
(dp144
btp145
Rp146
(dp147
bag2
(g64
g4
(g6
(g7
((I0
S'3L'
p148
I-2
I2
tp149
tp150
Rp151
(dp152
g13
I53
sbg73
g90
tp153
Rp154
(dp155
btp156
Rp157
(dp158
btp159
Rp160
(dp161
bag2
(g109
g4
(g6
(g7
((I0
S'3L'
p162
I-2
I2
tp163
tp164
Rp165
(dp166
g13
I53
sbg118
g2
(g7
((I1
S'47ae147ae147bL'
p167
I-55
I51
tp168
tp169
Rp170
(dp171
g13
I53
sbg134
tp172
Rp173
(dp174
btp175
Rp176
(dp177
btp178
Rp179
(dp180
btp181
Rp182
(dp183
bag2
(g7
((I0
S'1L'
p184
I0
I1
tp185
tp186
Rp187
(dp188
g13
I53
sbg109
g4
(g6
(g7
((I0
S'b851eb851eb85L'
p189
I-57
I52
tp190
tp191
Rp192
(dp193
g13
I53
sbg2
(g7
((I0
S'13333333333333L'
p194
I-55
I53
tp195
tp196
Rp197
(dp198
g13
I53
sbg118
tp199
Rp200
(dp201
bg2
(g7
((I1
S'15810624dd2f1bL'
p202
I-60
I53
tp203
tp204
Rp205
(dp206
g13
I53
sbg134
tp207
Rp208
(dp209
btp210
Rp211
(dp212
btp213
Rp214
(dp215
btp216
Rp217
(dp218
bag2
(g7
((I0
S'1L'
p219
I0
I1
tp220
tp221
Rp222
(dp223
g13
I53
sbg64
g4
(g6
(g7
((I1
S'b851eb851eb85L'
p224
I-57
I52
tp225
tp226
Rp227
(dp228
g13
I53
sbg2
(g7
((I0
S'ebedfa43fe5c9L'
p229
I-61
I52
tp230
tp231
Rp232
(dp233
g13
I53
sbg87
tp234
Rp235
(dp236
bg2
(g7
((I0
S'13333333333333L'
p237
I-55
I53
tp238
tp239
Rp240
(dp241
g13
I53
sbg73
tp242
Rp243
(dp244
btp245
Rp246
(dp247
btp248
Rp249
(dp250
btp251
Rp252
(dp253
bag2
(g7
((I0
S'1L'
p254
I0
I1
tp255
tp256
Rp257
(dp258
g13
I53
sbg109
g4
(g6
(g7
((I0
S'b851eb851eb85L'
p259
I-56
I52
tp260
tp261
Rp262
(dp263
g13
I53
sbg200
g208
tp264
Rp265
(dp266
btp267
Rp268
(dp269
btp270
Rp271
(dp272
bag2
(g7
((I0
S'1L'
p273
I0
I1
tp274
tp275
Rp276
(dp277
g13
I53
sbg64
g4
(g6
(g7
((I1
S'b851eb851eb85L'
p278
I-56
I52
tp279
tp280
Rp281
(dp282
g13
I53
sbg2
(g7
((I0
S'ebedfa43fe5c9L'
p283
I-61
I52
tp284
tp285
Rp286
(dp287
g13
I53
sbg87
tp288
Rp289
(dp290
bg2
(g7
((I0
S'13333333333333L'
p291
I-55
I53
tp292
tp293
Rp294
(dp295
g13
I53
sbg73
tp296
Rp297
(dp298
btp299
Rp300
(dp301
btp302
Rp303
(dp304
btp305
Rp306
(dp307
baa(lp308
g2
(g3
(g4
(g5
(g6
(g7
((I1
S'10c152382d7365L'
p309
I-52
I53
tp310
tp311
Rp312
(dp313
g13
I53
sbg17
tp314
Rp315
(dp316
btp317
Rp318
(dp319
btp320
Rp321
(dp322
bg61
tp323
Rp324
(dp325
bg4
(g6
(g7
((I1
S'3L'
p326
I-2
I2
tp327
tp328
Rp329
(dp330
g13
I53
sbg73
g2
(g7
((I0
S'795810624dd2fL'
p331
I-54
I51
tp332
tp333
Rp334
(dp335
g13
I53
sbg87
tp336
Rp337
(dp338
btp339
Rp340
(dp341
btp342
Rp343
(dp344
btp345
Rp346
(dp347
bag2
(g3
(g4
(g101
(g315
tp348
Rp349
(dp350
btp351
Rp352
(dp353
bg61
tp354
Rp355
(dp356
bg4
(g6
(g7
((I0
S'3L'
p357
I-2
I2
tp358
tp359
Rp360
(dp361
g13
I53
sbg2
(g61
g118
tp362
Rp363
(dp364
bg2
(g7
((I0
S'b851eb851eb85L'
p365
I-57
I52
tp366
tp367
Rp368
(dp369
g13
I53
sbg134
tp370
Rp371
(dp372
btp373
Rp374
(dp375
btp376
Rp377
(dp378
btp379
Rp380
(dp381
bag2
(g324
g4
(g6
(g7
((I0
S'3L'
p382
I-2
I2
tp383
tp384
Rp385
(dp386
g13
I53
sbg73
g337
tp387
Rp388
(dp389
btp390
Rp391
(dp392
btp393
Rp394
(dp395
bag2
(g355
g4
(g6
(g7
((I0
S'3L'
p396
I-2
I2
tp397
tp398
Rp399
(dp400
g13
I53
sbg118
g2
(g7
((I1
S'b851eb851eb85L'
p401
I-57
I52
tp402
tp403
Rp404
(dp405
g13
I53
sbg134
tp406
Rp407
(dp408
btp409
Rp410
(dp411
btp412
Rp413
(dp414
btp415
Rp416
(dp417
bag2
(g7
((I0
S'1L'
p418
I0
I1
tp419
tp420
Rp421
(dp422
g13
I53
sbg355
g4
(g6
(g7
((I0
S'b851eb851eb85L'
p423
I-57
I52
tp424
tp425
Rp426
(dp427
g13
I53
sbg2
(g7
((I0
S'13333333333333L'
p428
I-55
I53
tp429
tp430
Rp431
(dp432
g13
I53
sbg118
tp433
Rp434
(dp435
bg2
(g7
((I1
S'1ba5e353f7ced9L'
p436
I-61
I53
tp437
tp438
Rp439
(dp440
g13
I53
sbg134
tp441
Rp442
(dp443
btp444
Rp445
(dp446
btp447
Rp448
(dp449
btp450
Rp451
(dp452
bag2
(g7
((I0
S'1L'
p453
I0
I1
tp454
tp455
Rp456
(dp457
g13
I53
sbg324
g4
(g6
(g7
((I1
S'b851eb851eb85L'
p458
I-57
I52
tp459
tp460
Rp461
(dp462
g13
I53
sbg2
(g7
((I0
S'48ce703afb7e9L'
p463
I-56
I51
tp464
tp465
Rp466
(dp467
g13
I53
sbg87
tp468
Rp469
(dp470
bg2
(g7
((I0
S'13333333333333L'
p471
I-55
I53
tp472
tp473
Rp474
(dp475
g13
I53
sbg73
tp476
Rp477
(dp478
btp479
Rp480
(dp481
btp482
Rp483
(dp484
btp485
Rp486
(dp487
bag2
(g7
((I0
S'1L'
p488
I0
I1
tp489
tp490
Rp491
(dp492
g13
I53
sbg355
g4
(g6
(g7
((I0
S'b851eb851eb85L'
p493
I-56
I52
tp494
tp495
Rp496
(dp497
g13
I53
sbg434
g442
tp498
Rp499
(dp500
btp501
Rp502
(dp503
btp504
Rp505
(dp506
bag2
(g7
((I0
S'1L'
p507
I0
I1
tp508
tp509
Rp510
(dp511
g13
I53
sbg324
g4
(g6
(g7
((I1
S'b851eb851eb85L'
p512
I-56
I52
tp513
tp514
Rp515
(dp516
g13
I53
sbg2
(g7
((I0
S'48ce703afb7e9L'
p517
I-56
I51
tp518
tp519
Rp520
(dp521
g13
I53
sbg87
tp522
Rp523
(dp524
bg2
(g7
((I0
S'13333333333333L'
p525
I-55
I53
tp526
tp527
Rp528
(dp529
g13
I53
sbg73
tp530
Rp531
(dp532
btp533
Rp534
(dp535
btp536
Rp537
(dp538
btp539
Rp540
(dp541
baa(lp542
g2
(g3
(g4
(g87
tp543
Rp544
(dp545
bg61
tp546
Rp547
(dp548
bg4
(g6
(g7
((I1
S'3L'
p549
I-2
I2
tp550
tp551
Rp552
(dp553
g13
I53
sbg73
g2
(g7
((I0
S'4189374bc6a7fL'
p554
I-53
I51
tp555
tp556
Rp557
(dp558
g13
I53
sbg87
tp559
Rp560
(dp561
btp562
Rp563
(dp564
btp565
Rp566
(dp567
btp568
Rp569
(dp570
bag2
(g3
(g4
(g134
tp571
Rp572
(dp573
bg61
tp574
Rp575
(dp576
bg4
(g6
(g7
((I1
S'3L'
p577
I-2
I2
tp578
tp579
Rp580
(dp581
g13
I53
sbg118
tp582
Rp583
(dp584
btp585
Rp586
(dp587
btp588
Rp589
(dp590
bag2
(g547
g4
(g6
(g7
((I0
S'3L'
p591
I-2
I2
tp592
tp593
Rp594
(dp595
g13
I53
sbg73
g560
tp596
Rp597
(dp598
btp599
Rp600
(dp601
btp602
Rp603
(dp604
bag2
(g575
g4
(g6
(g7
((I0
S'3L'
p605
I-2
I2
tp606
tp607
Rp608
(dp609
g13
I53
sbg118
tp610
Rp611
(dp612
btp613
Rp614
(dp615
btp616
Rp617
(dp618
bag2
(g7
((I0
S'1L'
p619
I0
I1
tp620
tp621
Rp622
(dp623
g13
I53
sbg575
g4
(g6
(g7
((I0
S'b851eb851eb85L'
p624
I-57
I52
tp625
tp626
Rp627
(dp628
g13
I53
sbg2
(g7
((I0
S'13333333333333L'
p629
I-55
I53
tp630
tp631
Rp632
(dp633
g13
I53
sbg118
tp634
Rp635
(dp636
btp637
Rp638
(dp639
btp640
Rp641
(dp642
btp643
Rp644
(dp645
bag2
(g7
((I0
S'1L'
p646
I0
I1
tp647
tp648
Rp649
(dp650
g13
I53
sbg547
g4
(g6
(g7
((I1
S'b851eb851eb85L'
p651
I-57
I52
tp652
tp653
Rp654
(dp655
g13
I53
sbg477
g2
(g7
((I0
S'13a92a30553261L'
p656
I-58
I53
tp657
tp658
Rp659
(dp660
g13
I53
sbg87
tp661
Rp662
(dp663
btp664
Rp665
(dp666
btp667
Rp668
(dp669
btp670
Rp671
(dp672
bag2
(g7
((I0
S'1L'
p673
I0
I1
tp674
tp675
Rp676
(dp677
g13
I53
sbg575
g4
(g6
(g7
((I0
S'b851eb851eb85L'
p678
I-56
I52
tp679
tp680
Rp681
(dp682
g13
I53
sbg635
tp683
Rp684
(dp685
btp686
Rp687
(dp688
btp689
Rp690
(dp691
bag2
(g7
((I0
S'1L'
p692
I0
I1
tp693
tp694
Rp695
(dp696
g13
I53
sbg547
g4
(g6
(g7
((I1
S'b851eb851eb85L'
p697
I-56
I52
tp698
tp699
Rp700
(dp701
g13
I53
sbg531
g2
(g7
((I0
S'13a92a30553261L'
p702
I-58
I53
tp703
tp704
Rp705
(dp706
g13
I53
sbg87
tp707
Rp708
(dp709
btp710
Rp711
(dp712
btp713
Rp714
(dp715
btp716
Rp717
(dp718
baa(lp719
g2
(g3
(g4
(g5
(g6
(g7
((I0
S'10c152382d7365L'
p720
I-52
I53
tp721
tp722
Rp723
(dp724
g13
I53
sbg17
tp725
Rp726
(dp727
btp728
Rp729
(dp730
btp731
Rp732
(dp733
bg61
tp734
Rp735
(dp736
bg343
tp737
Rp738
(dp739
bag2
(g3
(g4
(g101
(g726
tp740
Rp741
(dp742
btp743
Rp744
(dp745
bg61
tp746
Rp747
(dp748
bg4
(g6
(g7
((I1
S'3L'
p749
I-2
I2
tp750
tp751
Rp752
(dp753
g13
I53
sbg118
g2
(g7
((I0
S'b851eb851eb85L'
p754
I-57
I52
tp755
tp756
Rp757
(dp758
g13
I53
sbg134
tp759
Rp760
(dp761
btp762
Rp763
(dp764
btp765
Rp766
(dp767
btp768
Rp769
(dp770
bag2
(g735
g391
tp771
Rp772
(dp773
bag2
(g747
g4
(g6
(g7
((I0
S'3L'
p774
I-2
I2
tp775
tp776
Rp777
(dp778
g13
I53
sbg118
g760
tp779
Rp780
(dp781
btp782
Rp783
(dp784
btp785
Rp786
(dp787
bag2
(g7
((I0
S'1L'
p788
I0
I1
tp789
tp790
Rp791
(dp792
g13
I53
sbg747
g4
(g6
(g7
((I0
S'b851eb851eb85L'
p793
I-57
I52
tp794
tp795
Rp796
(dp797
g13
I53
sbg2
(g7
((I0
S'13333333333333L'
p798
I-55
I53
tp799
tp800
Rp801
(dp802
g13
I53
sbg118
tp803
Rp804
(dp805
bg2
(g7
((I0
S'1ba5e353f7ced9L'
p806
I-61
I53
tp807
tp808
Rp809
(dp810
g13
I53
sbg134
tp811
Rp812
(dp813
btp814
Rp815
(dp816
btp817
Rp818
(dp819
btp820
Rp821
(dp822
bag2
(g7
((I0
S'1L'
p823
I0
I1
tp824
tp825
Rp826
(dp827
g13
I53
sbg735
g483
tp828
Rp829
(dp830
bag2
(g7
((I0
S'1L'
p831
I0
I1
tp832
tp833
Rp834
(dp835
g13
I53
sbg747
g4
(g6
(g7
((I0
S'b851eb851eb85L'
p836
I-56
I52
tp837
tp838
Rp839
(dp840
g13
I53
sbg804
g812
tp841
Rp842
(dp843
btp844
Rp845
(dp846
btp847
Rp848
(dp849
bag2
(g7
((I0
S'1L'
p850
I0
I1
tp851
tp852
Rp853
(dp854
g13
I53
sbg735
g537
tp855
Rp856
(dp857
baa(lp858
g2
(g3
(g4
(g5
(g6
(g7
((I0
S'3243f6a8885a3L'
p859
I-49
I50
tp860
tp861
Rp862
(dp863
g13
I53
sbg17
tp864
Rp865
(dp866
btp867
Rp868
(dp869
btp870
Rp871
(dp872
bg61
tp873
Rp874
(dp875
bg96
tp876
Rp877
(dp878
bag2
(g3
(g4
(g101
(g865
tp879
Rp880
(dp881
btp882
Rp883
(dp884
bg61
tp885
Rp886
(dp887
bg4
(g6
(g7
((I1
S'3L'
p888
I-2
I2
tp889
tp890
Rp891
(dp892
g13
I53
sbg118
g2
(g7
((I0
S'47ae147ae147bL'
p893
I-55
I51
tp894
tp895
Rp896
(dp897
g13
I53
sbg134
tp898
Rp899
(dp900
btp901
Rp902
(dp903
btp904
Rp905
(dp906
btp907
Rp908
(dp909
bag2
(g874
g157
tp910
Rp911
(dp912
bag2
(g886
g4
(g6
(g7
((I0
S'3L'
p913
I-2
I2
tp914
tp915
Rp916
(dp917
g13
I53
sbg118
g899
tp918
Rp919
(dp920
btp921
Rp922
(dp923
btp924
Rp925
(dp926
bag2
(g7
((I0
S'1L'
p927
I0
I1
tp928
tp929
Rp930
(dp931
g13
I53
sbg886
g4
(g6
(g7
((I0
S'b851eb851eb85L'
p932
I-57
I52
tp933
tp934
Rp935
(dp936
g13
I53
sbg2
(g7
((I0
S'13333333333333L'
p937
I-55
I53
tp938
tp939
Rp940
(dp941
g13
I53
sbg118
tp942
Rp943
(dp944
bg2
(g7
((I0
S'15810624dd2f1bL'
p945
I-60
I53
tp946
tp947
Rp948
(dp949
g13
I53
sbg134
tp950
Rp951
(dp952
btp953
Rp954
(dp955
btp956
Rp957
(dp958
btp959
Rp960
(dp961
bag2
(g7
((I0
S'1L'
p962
I0
I1
tp963
tp964
Rp965
(dp966
g13
I53
sbg874
g249
tp967
Rp968
(dp969
bag2
(g7
((I0
S'1L'
p970
I0
I1
tp971
tp972
Rp973
(dp974
g13
I53
sbg886
g4
(g6
(g7
((I0
S'b851eb851eb85L'
p975
I-56
I52
tp976
tp977
Rp978
(dp979
g13
I53
sbg943
g951
tp980
Rp981
(dp982
btp983
Rp984
(dp985
btp986
Rp987
(dp988
bag2
(g7
((I0
S'1L'
p989
I0
I1
tp990
tp991
Rp992
(dp993
g13
I53
sbg874
g303
tp994
Rp995
(dp996
baa.