(lp0
(lp1
(lp2
csympy.core.mul
Mul
p3
(csympy.core.power
Pow
p4
(csympy.functions.elementary.complexes
Abs
p5
(csympy.functions.elementary.trigonometric
cos
p6
(csympy.core.add
Add
p7
(csympy.core.numbers
Float
p8
((I1
S'3243f6a8885a3L'
p9
I-49
I50
tp10
tp11
Rp12
(dp13
S'_prec'
p14
I53
sbcsympy.core.symbol
Symbol
p15
(S'theta'
p16
tp17
Rp18
(dp19
S'_assumptions'
p20
ccopy_reg
_reconstructor
p21
(csympy.core.assumptions
StdFactKB
p22
c__builtin__
dict
p23
(dp24
S'real'
p25
I01
sS'prime'
p26
NsS'irrational'
p27
NsS'antihermitian'
p28
NsS'nonpositive'
p29
NsS'composite'
p30
NsS'algebraic'
p31
NsS'zero'
p32
NsS'infinite'
p33
NsS'integer'
p34
NsS'hermitian'
p35
I01
sS'odd'
p36
NsS'imaginary'
p37
I00
sS'even'
p38
NsS'commutative'
p39
I01
sS'positive'
p40
NsS'negative'
p41
NsS'nonnegative'
p42
NsS'complex'
p43
I01
sS'rational'
p44
NsS'finite'
p45
Nstp46
Rp47
(dp48
S'_generator'
p49
(dp50
g25
I01
ssbsbtp51
Rp52
(dp53
btp54
Rp55
(dp56
btp57
Rp58
(dp59
bcsympy.core.numbers
NegativeOne
p60
(I-1
tp61
Rp62
(dp63
btp64
Rp65
(dp66
bcsympy.functions.elementary.complexes
sign
p67
(g7
(g8
((I1
S'3L'
p68
I-2
I2
tp69
tp70
Rp71
(dp72
g14
I53
sbg15
(S'x'
p73
tp74
Rp75
(dp76
g20
g21
(g22
g23
(dp77
g25
I01
sS'polar'
p78
Nsg27
Nsg28
Nsg29
Nsg31
Nsg32
Nsg33
Nsg34
Nsg35
I01
sg36
Nsg37
I00
sg38
Nsg39
I01
sg40
Nsg41
Nsg42
Nsg43
I01
sg44
Nsg45
Nstp79
Rp80
(dp81
g49
(dp82
g25
I01
ssbsbg3
(g8
((I0
S'c49ba5e353f7dL'
p83
I-58
I52
tp84
tp85
Rp86
(dp87
g14
I53
sbg6
(g18
tp88
Rp89
(dp90
btp91
Rp92
(dp93
btp94
Rp95
(dp96
btp97
Rp98
(dp99
btp100
Rp101
(dp102
bacsympy.core.numbers
Zero
p103
(I0
tp104
Rp105
(dp106
bag7
(g3
(g8
((I1
S'c49ba5e353f7dL'
p107
I-58
I52
tp108
tp109
Rp110
(dp111
g14
I53
sbg65
g98
csympy.functions.elementary.trigonometric
sin
p112
(g18
tp113
Rp114
(dp115
btp116
Rp117
(dp118
bg3
(g4
(g55
csympy.core.numbers
Integer
p119
(I-2
tp120
Rp121
(dp122
btp123
Rp124
(dp125
bg5
(g7
(g8
((I1
S'3L'
p126
I-2
I2
tp127
tp128
Rp129
(dp130
g14
I53
sbg75
g92
tp131
Rp132
(dp133
btp134
Rp135
(dp136
bg67
(g55
tp137
Rp138
(dp139
bg112
(g52
tp140
Rp141
(dp142
btp143
Rp144
(dp145
btp146
Rp147
(dp148
baa(lp149
g105
ag3
(g62
g4
(g5
(g141
tp150
Rp151
(dp152
bg62
tp153
Rp154
(dp155
bg67
(g7
(g8
((I0
S'3L'
p156
I-2
I2
tp157
tp158
Rp159
(dp160
g14
I53
sbg3
(g62
g15
(S'y'
p161
tp162
Rp163
(dp164
g20
g21
(g22
g23
(dp165
g25
I01
sg78
Nsg35
I01
sg27
Nsg28
Nsg29
Nsg30
Nsg31
Nsg32
Nsg33
Nsg34
Nsg37
I00
sg36
Nsg38
Nsg39
I01
sg40
Nsg41
Nsg42
Nsg26
Nsg43
I01
sg44
Nsg45
Nstp166
Rp167
(dp168
g49
(dp169
g25
I01
ssbsbtp170
Rp171
(dp172
bg3
(g8
((I0
S'47ae147ae147bL'
p173
I-55
I51
tp174
tp175
Rp176
(dp177
g14
I53
sbg114
tp178
Rp179
(dp180
btp181
Rp182
(dp183
btp184
Rp185
(dp186
btp187
Rp188
(dp189
bag7
(g3
(g8
((I0
S'47ae147ae147bL'
p190
I-55
I51
tp191
tp192
Rp193
(dp194
g14
I53
sbg154
g89
g185
tp195
Rp196
(dp197
bg3
(g62
g4
(g141
g121
tp198
Rp199
(dp200
bg5
(g7
(g8
((I0
S'3L'
p201
I-2
I2
tp202
tp203
Rp204
(dp205
g14
I53
sbg171
g3
(g8
((I0
S'47ae147ae147bL'
p206
I-55
I51
tp207
tp208
Rp209
(dp210
g14
I53
sbg114
tp211
Rp212
(dp213
btp214
Rp215
(dp216
btp217
Rp218
(dp219
bg55
g67
(g141
tp220
Rp221
(dp222
btp223
Rp224
(dp225
btp226
Rp227
(dp228
baa(lp229
g3
(g65
g67
(g7
(g8
((I0
S'3L'
p230
I-2
I2
tp231
tp232
Rp233
(dp234
g14
I53
sbg75
g92
tp235
Rp236
(dp237
btp238
Rp239
(dp240
btp241
Rp242
(dp243
bag105
ag7
(g3
(g8
((I1
S'c49ba5e353f7dL'
p244
I-58
I52
tp245
tp246
Rp247
(dp248
g14
I53
sbg65
g239
g114
tp249
Rp250
(dp251
bg3
(g124
g5
(g7
(g8
((I0
S'3L'
p252
I-2
I2
tp253
tp254
Rp255
(dp256
g14
I53
sbg75
g92
tp257
Rp258
(dp259
btp260
Rp261
(dp262
bg138
g141
tp263
Rp264
(dp265
btp266
Rp267
(dp268
baa(lp269
g105
ag3
(g154
g67
(g7
(g8
((I0
S'3L'
p270
I-2
I2
tp271
tp272
Rp273
(dp274
g14
I53
sbg163
g3
(g8
((I1
S'47ae147ae147bL'
p275
I-55
I51
tp276
tp277
Rp278
(dp279
g14
I53
sbg114
tp280
Rp281
(dp282
btp283
Rp284
(dp285
btp286
Rp287
(dp288
btp289
Rp290
(dp291
bag7
(g3
(g8
((I1
S'47ae147ae147bL'
p292
I-55
I51
tp293
tp294
Rp295
(dp296
g14
I53
sbg154
g89
g287
tp297
Rp298
(dp299
bg3
(g62
g199
g5
(g7
(g8
((I0
S'3L'
p300
I-2
I2
tp301
tp302
Rp303
(dp304
g14
I53
sbg163
g281
tp305
Rp306
(dp307
btp308
Rp309
(dp310
bg55
g221
tp311
Rp312
(dp313
btp314
Rp315
(dp316
baa(lp317
g105
ag3
(g8
((I0
S'13333333333333L'
p318
I-55
I53
tp319
tp320
Rp321
(dp322
g14
I53
sbg154
g67
(g7
(g8
((I0
S'b851eb851eb85L'
p323
I-57
I52
tp324
tp325
Rp326
(dp327
g14
I53
sbg3
(g8
((I0
S'13333333333333L'
p328
I-55
I53
tp329
tp330
Rp331
(dp332
g14
I53
sbg163
tp333
Rp334
(dp335
bg3
(g8
((I1
S'15810624dd2f1bL'
p336
I-60
I53
tp337
tp338
Rp339
(dp340
g14
I53
sbg114
tp341
Rp342
(dp343
btp344
Rp345
(dp346
btp347
Rp348
(dp349
btp350
Rp351
(dp352
bag7
(g3
(g8
((I1
S'15810624dd2f1bL'
p353
I-60
I53
tp354
tp355
Rp356
(dp357
g14
I53
sbg154
g89
g348
tp358
Rp359
(dp360
bg3
(g8
((I1
S'1L'
p361
I0
I1
tp362
tp363
Rp364
(dp365
g14
I53
sbg199
g5
(g7
(g8
((I0
S'b851eb851eb85L'
p366
I-57
I52
tp367
tp368
Rp369
(dp370
g14
I53
sbg3
(g8
((I0
S'13333333333333L'
p371
I-55
I53
tp372
tp373
Rp374
(dp375
g14
I53
sbg163
tp376
Rp377
(dp378
bg3
(g8
((I1
S'15810624dd2f1bL'
p379
I-60
I53
tp380
tp381
Rp382
(dp383
g14
I53
sbg114
tp384
Rp385
(dp386
btp387
Rp388
(dp389
btp390
Rp391
(dp392
bg55
g221
tp393
Rp394
(dp395
btp396
Rp397
(dp398
baa(lp399
g3
(g8
((I0
S'13333333333333L'
p400
I-55
I53
tp401
tp402
Rp403
(dp404
g14
I53
sbg65
g67
(g7
(g8
((I1
S'b851eb851eb85L'
p405
I-57
I52
tp406
tp407
Rp408
(dp409
g14
I53
sbg3
(g8
((I0
S'ebedfa43fe5c9L'
p410
I-61
I52
tp411
tp412
Rp413
(dp414
g14
I53
sbg89
tp415
Rp416
(dp417
bg3
(g8
((I0
S'13333333333333L'
p418
I-55
I53
tp419
tp420
Rp421
(dp422
g14
I53
sbg75
tp423
Rp424
(dp425
btp426
Rp427
(dp428
btp429
Rp430
(dp431
btp432
Rp433
(dp434
bag105
ag7
(g3
(g8
((I1
S'ebedfa43fe5c9L'
p435
I-61
I52
tp436
tp437
Rp438
(dp439
g14
I53
sbg65
g430
g114
tp440
Rp441
(dp442
bg3
(g8
((I0
S'1L'
p443
I0
I1
tp444
tp445
Rp446
(dp447
g14
I53
sbg124
g5
(g7
(g8
((I1
S'b851eb851eb85L'
p448
I-57
I52
tp449
tp450
Rp451
(dp452
g14
I53
sbg3
(g8
((I0
S'ebedfa43fe5c9L'
p453
I-61
I52
tp454
tp455
Rp456
(dp457
g14
I53
sbg89
tp458
Rp459
(dp460
bg3
(g8
((I0
S'13333333333333L'
p461
I-55
I53
tp462
tp463
Rp464
(dp465
g14
I53
sbg75
tp466
Rp467
(dp468
btp469
Rp470
(dp471
btp472
Rp473
(dp474
bg138
g141
tp475
Rp476
(dp477
btp478
Rp479
(dp480
baa(lp481
g105
ag3
(g8
((I0
S'13333333333333L'
p482
I-55
I53
tp483
tp484
Rp485
(dp486
g14
I53
sbg154
g67
(g7
(g8
((I0
S'b851eb851eb85L'
p487
I-56
I52
tp488
tp489
Rp490
(dp491
g14
I53
sbg334
g342
tp492
Rp493
(dp494
btp495
Rp496
(dp497
btp498
Rp499
(dp500
bag7
(g3
(g8
((I1
S'15810624dd2f1bL'
p501
I-60
I53
tp502
tp503
Rp504
(dp505
g14
I53
sbg154
g89
g496
tp506
Rp507
(dp508
bg3
(g8
((I1
S'1L'
p509
I0
I1
tp510
tp511
Rp512
(dp513
g14
I53
sbg199
g5
(g7
(g8
((I0
S'b851eb851eb85L'
p514
I-56
I52
tp515
tp516
Rp517
(dp518
g14
I53
sbg377
g385
tp519
Rp520
(dp521
btp522
Rp523
(dp524
bg55
g221
tp525
Rp526
(dp527
btp528
Rp529
(dp530
baa(lp531
g3
(g8
((I0
S'13333333333333L'
p532
I-55
I53
tp533
tp534
Rp535
(dp536
g14
I53
sbg65
g67
(g7
(g8
((I1
S'b851eb851eb85L'
p537
I-56
I52
tp538
tp539
Rp540
(dp541
g14
I53
sbg416
g424
tp542
Rp543
(dp544
btp545
Rp546
(dp547
btp548
Rp549
(dp550
bag105
ag7
(g3
(g8
((I1
S'ebedfa43fe5c9L'
p551
I-61
I52
tp552
tp553
Rp554
(dp555
g14
I53
sbg65
g546
g114
tp556
Rp557
(dp558
bg3
(g8
((I0
S'1L'
p559
I0
I1
tp560
tp561
Rp562
(dp563
g14
I53
sbg124
g5
(g7
(g8
((I1
S'b851eb851eb85L'
p564
I-56
I52
tp565
tp566
Rp567
(dp568
g14
I53
sbg416
g424
tp569
Rp570
(dp571
btp572
Rp573
(dp574
bg138
g141
tp575
Rp576
(dp577
btp578
Rp579
(dp580
baaa(lp581
(lp582
g3
(g4
(g5
(g6
(g7
(g8
((I1
S'10c152382d7365L'
p583
I-52
I53
tp584
tp585
Rp586
(dp587
g14
I53
sbg18
tp588
Rp589
(dp590
btp591
Rp592
(dp593
btp594
Rp595
(dp596
bg62
tp597
Rp598
(dp599
bg67
(g7
(g8
((I1
S'3L'
p600
I-2
I2
tp601
tp602
Rp603
(dp604
g14
I53
sbg75
g3
(g8
((I0
S'795810624dd2fL'
p605
I-54
I51
tp606
tp607
Rp608
(dp609
g14
I53
sbg89
tp610
Rp611
(dp612
btp613
Rp614
(dp615
btp616
Rp617
(dp618
btp619
Rp620
(dp621
bag105
ag7
(g3
(g8
((I1
S'795810624dd2fL'
p622
I-54
I51
tp623
tp624
Rp625
(dp626
g14
I53
sbg598
g617
g114
tp627
Rp628
(dp629
bg3
(g4
(g592
g121
tp630
Rp631
(dp632
bg5
(g7
(g8
((I1
S'3L'
p633
I-2
I2
tp634
tp635
Rp636
(dp637
g14
I53
sbg75
g611
tp638
Rp639
(dp640
btp641
Rp642
(dp643
bg67
(g592
tp644
Rp645
(dp646
bg112
(g589
tp647
Rp648
(dp649
btp650
Rp651
(dp652
btp653
Rp654
(dp655
baa(lp656
g105
ag3
(g62
g4
(g5
(g648
tp657
Rp658
(dp659
bg62
tp660
Rp661
(dp662
bg67
(g7
(g8
((I0
S'3L'
p663
I-2
I2
tp664
tp665
Rp666
(dp667
g14
I53
sbg3
(g62
g163
tp668
Rp669
(dp670
bg3
(g8
((I0
S'b851eb851eb85L'
p671
I-57
I52
tp672
tp673
Rp674
(dp675
g14
I53
sbg114
tp676
Rp677
(dp678
btp679
Rp680
(dp681
btp682
Rp683
(dp684
btp685
Rp686
(dp687
bag7
(g3
(g8
((I0
S'b851eb851eb85L'
p688
I-57
I52
tp689
tp690
Rp691
(dp692
g14
I53
sbg661
g89
g683
tp693
Rp694
(dp695
bg3
(g62
g4
(g648
g121
tp696
Rp697
(dp698
bg5
(g7
(g8
((I0
S'3L'
p699
I-2
I2
tp700
tp701
Rp702
(dp703
g14
I53
sbg669
g3
(g8
((I0
S'b851eb851eb85L'
p704
I-57
I52
tp705
tp706
Rp707
(dp708
g14
I53
sbg114
tp709
Rp710
(dp711
btp712
Rp713
(dp714
btp715
Rp716
(dp717
bg592
g67
(g648
tp718
Rp719
(dp720
btp721
Rp722
(dp723
btp724
Rp725
(dp726
baa(lp727
g3
(g598
g67
(g7
(g8
((I0
S'3L'
p728
I-2
I2
tp729
tp730
Rp731
(dp732
g14
I53
sbg75
g611
tp733
Rp734
(dp735
btp736
Rp737
(dp738
btp739
Rp740
(dp741
bag105
ag7
(g3
(g8
((I1
S'795810624dd2fL'
p742
I-54
I51
tp743
tp744
Rp745
(dp746
g14
I53
sbg598
g737
g114
tp747
Rp748
(dp749
bg3
(g631
g5
(g7
(g8
((I0
S'3L'
p750
I-2
I2
tp751
tp752
Rp753
(dp754
g14
I53
sbg75
g611
tp755
Rp756
(dp757
btp758
Rp759
(dp760
bg645
g648
tp761
Rp762
(dp763
btp764
Rp765
(dp766
baa(lp767
g105
ag3
(g661
g67
(g7
(g8
((I0
S'3L'
p768
I-2
I2
tp769
tp770
Rp771
(dp772
g14
I53
sbg163
g3
(g8
((I1
S'b851eb851eb85L'
p773
I-57
I52
tp774
tp775
Rp776
(dp777
g14
I53
sbg114
tp778
Rp779
(dp780
btp781
Rp782
(dp783
btp784
Rp785
(dp786
btp787
Rp788
(dp789
bag7
(g3
(g8
((I1
S'b851eb851eb85L'
p790
I-57
I52
tp791
tp792
Rp793
(dp794
g14
I53
sbg661
g89
g785
tp795
Rp796
(dp797
bg3
(g62
g697
g5
(g7
(g8
((I0
S'3L'
p798
I-2
I2
tp799
tp800
Rp801
(dp802
g14
I53
sbg163
g779
tp803
Rp804
(dp805
btp806
Rp807
(dp808
bg592
g719
tp809
Rp810
(dp811
btp812
Rp813
(dp814
baa(lp815
g105
ag3
(g8
((I0
S'13333333333333L'
p816
I-55
I53
tp817
tp818
Rp819
(dp820
g14
I53
sbg661
g67
(g7
(g8
((I0
S'b851eb851eb85L'
p821
I-57
I52
tp822
tp823
Rp824
(dp825
g14
I53
sbg3
(g8
((I0
S'13333333333333L'
p826
I-55
I53
tp827
tp828
Rp829
(dp830
g14
I53
sbg163
tp831
Rp832
(dp833
bg3
(g8
((I1
S'1ba5e353f7ced9L'
p834
I-61
I53
tp835
tp836
Rp837
(dp838
g14
I53
sbg114
tp839
Rp840
(dp841
btp842
Rp843
(dp844
btp845
Rp846
(dp847
btp848
Rp849
(dp850
bag7
(g3
(g8
((I1
S'1ba5e353f7ced9L'
p851
I-61
I53
tp852
tp853
Rp854
(dp855
g14
I53
sbg661
g89
g846
tp856
Rp857
(dp858
bg3
(g8
((I1
S'1L'
p859
I0
I1
tp860
tp861
Rp862
(dp863
g14
I53
sbg697
g5
(g7
(g8
((I0
S'b851eb851eb85L'
p864
I-57
I52
tp865
tp866
Rp867
(dp868
g14
I53
sbg3
(g8
((I0
S'13333333333333L'
p869
I-55
I53
tp870
tp871
Rp872
(dp873
g14
I53
sbg163
tp874
Rp875
(dp876
bg3
(g8
((I1
S'1ba5e353f7ced9L'
p877
I-61
I53
tp878
tp879
Rp880
(dp881
g14
I53
sbg114
tp882
Rp883
(dp884
btp885
Rp886
(dp887
btp888
Rp889
(dp890
bg592
g719
tp891
Rp892
(dp893
btp894
Rp895
(dp896
baa(lp897
g3
(g8
((I0
S'13333333333333L'
p898
I-55
I53
tp899
tp900
Rp901
(dp902
g14
I53
sbg598
g67
(g7
(g8
((I1
S'b851eb851eb85L'
p903
I-57
I52
tp904
tp905
Rp906
(dp907
g14
I53
sbg3
(g8
((I0
S'48ce703afb7e9L'
p908
I-56
I51
tp909
tp910
Rp911
(dp912
g14
I53
sbg89
tp913
Rp914
(dp915
bg3
(g8
((I0
S'13333333333333L'
p916
I-55
I53
tp917
tp918
Rp919
(dp920
g14
I53
sbg75
tp921
Rp922
(dp923
btp924
Rp925
(dp926
btp927
Rp928
(dp929
btp930
Rp931
(dp932
bag105
ag7
(g3
(g8
((I1
S'48ce703afb7e9L'
p933
I-56
I51
tp934
tp935
Rp936
(dp937
g14
I53
sbg598
g928
g114
tp938
Rp939
(dp940
bg3
(g8
((I0
S'1L'
p941
I0
I1
tp942
tp943
Rp944
(dp945
g14
I53
sbg631
g5
(g7
(g8
((I1
S'b851eb851eb85L'
p946
I-57
I52
tp947
tp948
Rp949
(dp950
g14
I53
sbg3
(g8
((I0
S'48ce703afb7e9L'
p951
I-56
I51
tp952
tp953
Rp954
(dp955
g14
I53
sbg89
tp956
Rp957
(dp958
bg3
(g8
((I0
S'13333333333333L'
p959
I-55
I53
tp960
tp961
Rp962
(dp963
g14
I53
sbg75
tp964
Rp965
(dp966
btp967
Rp968
(dp969
btp970
Rp971
(dp972
bg645
g648
tp973
Rp974
(dp975
btp976
Rp977
(dp978
baa(lp979
g105
ag3
(g8
((I0
S'13333333333333L'
p980
I-55
I53
tp981
tp982
Rp983
(dp984
g14
I53
sbg661
g67
(g7
(g8
((I0
S'b851eb851eb85L'
p985
I-56
I52
tp986
tp987
Rp988
(dp989
g14
I53
sbg832
g840
tp990
Rp991
(dp992
btp993
Rp994
(dp995
btp996
Rp997
(dp998
bag7
(g3
(g8
((I1
S'1ba5e353f7ced9L'
p999
I-61
I53
tp1000
tp1001
Rp1002
(dp1003
g14
I53
sbg661
g89
g994
tp1004
Rp1005
(dp1006
bg3
(g8
((I1
S'1L'
p1007
I0
I1
tp1008
tp1009
Rp1010
(dp1011
g14
I53
sbg697
g5
(g7
(g8
((I0
S'b851eb851eb85L'
p1012
I-56
I52
tp1013
tp1014
Rp1015
(dp1016
g14
I53
sbg875
g883
tp1017
Rp1018
(dp1019
btp1020
Rp1021
(dp1022
bg592
g719
tp1023
Rp1024
(dp1025
btp1026
Rp1027
(dp1028
baa(lp1029
g3
(g8
((I0
S'13333333333333L'
p1030
I-55
I53
tp1031
tp1032
Rp1033
(dp1034
g14
I53
sbg598
g67
(g7
(g8
((I1
S'b851eb851eb85L'
p1035
I-56
I52
tp1036
tp1037
Rp1038
(dp1039
g14
I53
sbg914
g922
tp1040
Rp1041
(dp1042
btp1043
Rp1044
(dp1045
btp1046
Rp1047
(dp1048
bag105
ag7
(g3
(g8
((I1
S'48ce703afb7e9L'
p1049
I-56
I51
tp1050
tp1051
Rp1052
(dp1053
g14
I53
sbg598
g1044
g114
tp1054
Rp1055
(dp1056
bg3
(g8
((I0
S'1L'
p1057
I0
I1
tp1058
tp1059
Rp1060
(dp1061
g14
I53
sbg631
g5
(g7
(g8
((I1
S'b851eb851eb85L'
p1062
I-56
I52
tp1063
tp1064
Rp1065
(dp1066
g14
I53
sbg914
g922
tp1067
Rp1068
(dp1069
btp1070
Rp1071
(dp1072
bg645
g648
tp1073
Rp1074
(dp1075
btp1076
Rp1077
(dp1078
baaa(lp1079
(lp1080
g3
(g4
(g5
(g89
tp1081
Rp1082
(dp1083
bg62
tp1084
Rp1085
(dp1086
bg67
(g7
(g8
((I1
S'3L'
p1087
I-2
I2
tp1088
tp1089
Rp1090
(dp1091
g14
I53
sbg75
g3
(g8
((I0
S'4189374bc6a7fL'
p1092
I-53
I51
tp1093
tp1094
Rp1095
(dp1096
g14
I53
sbg89
tp1097
Rp1098
(dp1099
btp1100
Rp1101
(dp1102
btp1103
Rp1104
(dp1105
btp1106
Rp1107
(dp1108
bag105
ag3
(g7
(g3
(g8
((I1
S'4189374bc6a7fL'
p1109
I-53
I51
tp1110
tp1111
Rp1112
(dp1113
g14
I53
sbg1085
g1104
tp1114
Rp1115
(dp1116
bg3
(g8
((I0
S'1L'
p1117
I0
I1
tp1118
tp1119
Rp1120
(dp1121
g14
I53
sbg4
(g89
g121
tp1122
Rp1123
(dp1124
bg5
(g7
(g8
((I1
S'3L'
p1125
I-2
I2
tp1126
tp1127
Rp1128
(dp1129
g14
I53
sbg75
g1098
tp1130
Rp1131
(dp1132
btp1133
Rp1134
(dp1135
bg67
(g89
tp1136
Rp1137
(dp1138
btp1139
Rp1140
(dp1141
btp1142
Rp1143
(dp1144
bg114
tp1145
Rp1146
(dp1147
baa(lp1148
g105
ag3
(g4
(g5
(g114
tp1149
Rp1150
(dp1151
bg62
tp1152
Rp1153
(dp1154
bg67
(g7
(g8
((I1
S'3L'
p1155
I-2
I2
tp1156
tp1157
Rp1158
(dp1159
g14
I53
sbg163
tp1160
Rp1161
(dp1162
btp1163
Rp1164
(dp1165
btp1166
Rp1167
(dp1168
bag3
(g62
g4
(g114
g121
tp1169
Rp1170
(dp1171
bg5
(g7
(g8
((I1
S'3L'
p1172
I-2
I2
tp1173
tp1174
Rp1175
(dp1176
g14
I53
sbg163
tp1177
Rp1178
(dp1179
btp1180
Rp1181
(dp1182
bg89
g67
(g114
tp1183
Rp1184
(dp1185
btp1186
Rp1187
(dp1188
baa(lp1189
g3
(g1085
g67
(g7
(g8
((I0
S'3L'
p1190
I-2
I2
tp1191
tp1192
Rp1193
(dp1194
g14
I53
sbg75
g1098
tp1195
Rp1196
(dp1197
btp1198
Rp1199
(dp1200
btp1201
Rp1202
(dp1203
bag105
ag3
(g7
(g3
(g8
((I1
S'4189374bc6a7fL'
p1204
I-53
I51
tp1205
tp1206
Rp1207
(dp1208
g14
I53
sbg1085
g1199
tp1209
Rp1210
(dp1211
bg3
(g8
((I0
S'1L'
p1212
I0
I1
tp1213
tp1214
Rp1215
(dp1216
g14
I53
sbg1123
g5
(g7
(g8
((I0
S'3L'
p1217
I-2
I2
tp1218
tp1219
Rp1220
(dp1221
g14
I53
sbg75
g1098
tp1222
Rp1223
(dp1224
btp1225
Rp1226
(dp1227
bg1137
tp1228
Rp1229
(dp1230
btp1231
Rp1232
(dp1233
bg114
tp1234
Rp1235
(dp1236
baa(lp1237
g105
ag3
(g1153
g67
(g7
(g8
((I0
S'3L'
p1238
I-2
I2
tp1239
tp1240
Rp1241
(dp1242
g14
I53
sbg163
tp1243
Rp1244
(dp1245
btp1246
Rp1247
(dp1248
btp1249
Rp1250
(dp1251
bag3
(g62
g1170
g5
(g7
(g8
((I0
S'3L'
p1252
I-2
I2
tp1253
tp1254
Rp1255
(dp1256
g14
I53
sbg163
tp1257
Rp1258
(dp1259
btp1260
Rp1261
(dp1262
bg89
g1184
tp1263
Rp1264
(dp1265
baa(lp1266
g105
ag3
(g8
((I0
S'13333333333333L'
p1267
I-55
I53
tp1268
tp1269
Rp1270
(dp1271
g14
I53
sbg1153
g67
(g7
(g8
((I0
S'b851eb851eb85L'
p1272
I-57
I52
tp1273
tp1274
Rp1275
(dp1276
g14
I53
sbg3
(g8
((I0
S'13333333333333L'
p1277
I-55
I53
tp1278
tp1279
Rp1280
(dp1281
g14
I53
sbg163
tp1282
Rp1283
(dp1284
btp1285
Rp1286
(dp1287
btp1288
Rp1289
(dp1290
btp1291
Rp1292
(dp1293
bag3
(g8
((I1
S'1L'
p1294
I0
I1
tp1295
tp1296
Rp1297
(dp1298
g14
I53
sbg1170
g5
(g7
(g8
((I0
S'b851eb851eb85L'
p1299
I-57
I52
tp1300
tp1301
Rp1302
(dp1303
g14
I53
sbg3
(g8
((I0
S'13333333333333L'
p1304
I-55
I53
tp1305
tp1306
Rp1307
(dp1308
g14
I53
sbg163
tp1309
Rp1310
(dp1311
btp1312
Rp1313
(dp1314
btp1315
Rp1316
(dp1317
bg89
g1184
tp1318
Rp1319
(dp1320
baa(lp1321
g3
(g8
((I0
S'13333333333333L'
p1322
I-55
I53
tp1323
tp1324
Rp1325
(dp1326
g14
I53
sbg1085
g67
(g7
(g8
((I1
S'b851eb851eb85L'
p1327
I-57
I52
tp1328
tp1329
Rp1330
(dp1331
g14
I53
sbg922
g3
(g8
((I0
S'13a92a30553261L'
p1332
I-58
I53
tp1333
tp1334
Rp1335
(dp1336
g14
I53
sbg89
tp1337
Rp1338
(dp1339
btp1340
Rp1341
(dp1342
btp1343
Rp1344
(dp1345
btp1346
Rp1347
(dp1348
bag105
ag3
(g7
(g3
(g8
((I1
S'13a92a30553261L'
p1349
I-58
I53
tp1350
tp1351
Rp1352
(dp1353
g14
I53
sbg1085
g1344
tp1354
Rp1355
(dp1356
bg3
(g8
((I0
S'1L'
p1357
I0
I1
tp1358
tp1359
Rp1360
(dp1361
g14
I53
sbg1123
g5
(g7
(g8
((I1
S'b851eb851eb85L'
p1362
I-57
I52
tp1363
tp1364
Rp1365
(dp1366
g14
I53
sbg965
g3
(g8
((I0
S'13a92a30553261L'
p1367
I-58
I53
tp1368
tp1369
Rp1370
(dp1371
g14
I53
sbg89
tp1372
Rp1373
(dp1374
btp1375
Rp1376
(dp1377
btp1378
Rp1379
(dp1380
bg1137
tp1381
Rp1382
(dp1383
btp1384
Rp1385
(dp1386
bg114
tp1387
Rp1388
(dp1389
baa(lp1390
g105
ag3
(g8
((I0
S'13333333333333L'
p1391
I-55
I53
tp1392
tp1393
Rp1394
(dp1395
g14
I53
sbg1153
g67
(g7
(g8
((I0
S'b851eb851eb85L'
p1396
I-56
I52
tp1397
tp1398
Rp1399
(dp1400
g14
I53
sbg1283
tp1401
Rp1402
(dp1403
btp1404
Rp1405
(dp1406
btp1407
Rp1408
(dp1409
bag3
(g8
((I1
S'1L'
p1410
I0
I1
tp1411
tp1412
Rp1413
(dp1414
g14
I53
sbg1170
g5
(g7
(g8
((I0
S'b851eb851eb85L'
p1415
I-56
I52
tp1416
tp1417
Rp1418
(dp1419
g14
I53
sbg1310
tp1420
Rp1421
(dp1422
btp1423
Rp1424
(dp1425
bg89
g1184
tp1426
Rp1427
(dp1428
baa(lp1429
g3
(g8
((I0
S'13333333333333L'
p1430
I-55
I53
tp1431
tp1432
Rp1433
(dp1434
g14
I53
sbg1085
g67
(g7
(g8
((I1
S'b851eb851eb85L'
p1435
I-56
I52
tp1436
tp1437
Rp1438
(dp1439
g14
I53
sbg922
g1338
tp1440
Rp1441
(dp1442
btp1443
Rp1444
(dp1445
btp1446
Rp1447
(dp1448
bag105
ag3
(g7
(g3
(g8
((I1
S'13a92a30553261L'
p1449
I-58
I53
tp1450
tp1451
Rp1452
(dp1453
g14
I53
sbg1085
g1444
tp1454
Rp1455
(dp1456
bg3
(g8
((I0
S'1L'
p1457
I0
I1
tp1458
tp1459
Rp1460
(dp1461
g14
I53
sbg1123
g5
(g7
(g8
((I1
S'b851eb851eb85L'
p1462
I-56
I52
tp1463
tp1464
Rp1465
(dp1466
g14
I53
sbg922
g1338
tp1467
Rp1468
(dp1469
btp1470
Rp1471
(dp1472
bg1137
tp1473
Rp1474
(dp1475
btp1476
Rp1477
(dp1478
bg114
tp1479
Rp1480
(dp1481
baaa(lp1482
(lp1483
g3
(g4
(g5
(g6
(g7
(g8
((I0
S'10c152382d7365L'
p1484
I-52
I53
tp1485
tp1486
Rp1487
(dp1488
g14
I53
sbg18
tp1489
Rp1490
(dp1491
btp1492
Rp1493
(dp1494
btp1495
Rp1496
(dp1497
bg62
tp1498
Rp1499
(dp1500
bg617
tp1501
Rp1502
(dp1503
bag105
ag7
(g3
(g8
((I1
S'795810624dd2fL'
p1504
I-54
I51
tp1505
tp1506
Rp1507
(dp1508
g14
I53
sbg1499
g617
g114
tp1509
Rp1510
(dp1511
bg3
(g4
(g1493
g121
tp1512
Rp1513
(dp1514
bg642
g67
(g1493
tp1515
Rp1516
(dp1517
bg112
(g1490
tp1518
Rp1519
(dp1520
btp1521
Rp1522
(dp1523
btp1524
Rp1525
(dp1526
baa(lp1527
g105
ag3
(g4
(g5
(g1519
tp1528
Rp1529
(dp1530
bg62
tp1531
Rp1532
(dp1533
bg67
(g7
(g8
((I1
S'3L'
p1534
I-2
I2
tp1535
tp1536
Rp1537
(dp1538
g14
I53
sbg163
g3
(g8
((I0
S'b851eb851eb85L'
p1539
I-57
I52
tp1540
tp1541
Rp1542
(dp1543
g14
I53
sbg114
tp1544
Rp1545
(dp1546
btp1547
Rp1548
(dp1549
btp1550
Rp1551
(dp1552
btp1553
Rp1554
(dp1555
bag7
(g3
(g8
((I0
S'b851eb851eb85L'
p1556
I-57
I52
tp1557
tp1558
Rp1559
(dp1560
g14
I53
sbg1532
g89
g1551
tp1561
Rp1562
(dp1563
bg3
(g62
g4
(g1519
g121
tp1564
Rp1565
(dp1566
bg5
(g7
(g8
((I1
S'3L'
p1567
I-2
I2
tp1568
tp1569
Rp1570
(dp1571
g14
I53
sbg163
g1545
tp1572
Rp1573
(dp1574
btp1575
Rp1576
(dp1577
bg1493
g67
(g1519
tp1578
Rp1579
(dp1580
btp1581
Rp1582
(dp1583
btp1584
Rp1585
(dp1586
baa(lp1587
g3
(g1499
g737
tp1588
Rp1589
(dp1590
bag105
ag7
(g3
(g8
((I1
S'795810624dd2fL'
p1591
I-54
I51
tp1592
tp1593
Rp1594
(dp1595
g14
I53
sbg1499
g737
g114
tp1596
Rp1597
(dp1598
bg3
(g1513
g759
g1516
g1519
tp1599
Rp1600
(dp1601
btp1602
Rp1603
(dp1604
baa(lp1605
g105
ag3
(g1532
g67
(g7
(g8
((I0
S'3L'
p1606
I-2
I2
tp1607
tp1608
Rp1609
(dp1610
g14
I53
sbg163
g1545
tp1611
Rp1612
(dp1613
btp1614
Rp1615
(dp1616
btp1617
Rp1618
(dp1619
bag7
(g3
(g8
((I0
S'b851eb851eb85L'
p1620
I-57
I52
tp1621
tp1622
Rp1623
(dp1624
g14
I53
sbg1532
g89
g1615
tp1625
Rp1626
(dp1627
bg3
(g62
g1565
g5
(g7
(g8
((I0
S'3L'
p1628
I-2
I2
tp1629
tp1630
Rp1631
(dp1632
g14
I53
sbg163
g1545
tp1633
Rp1634
(dp1635
btp1636
Rp1637
(dp1638
bg1493
g1579
tp1639
Rp1640
(dp1641
btp1642
Rp1643
(dp1644
baa(lp1645
g105
ag3
(g8
((I0
S'13333333333333L'
p1646
I-55
I53
tp1647
tp1648
Rp1649
(dp1650
g14
I53
sbg1532
g67
(g7
(g8
((I0
S'b851eb851eb85L'
p1651
I-57
I52
tp1652
tp1653
Rp1654
(dp1655
g14
I53
sbg3
(g8
((I0
S'13333333333333L'
p1656
I-55
I53
tp1657
tp1658
Rp1659
(dp1660
g14
I53
sbg163
tp1661
Rp1662
(dp1663
bg3
(g8
((I0
S'1ba5e353f7ced9L'
p1664
I-61
I53
tp1665
tp1666
Rp1667
(dp1668
g14
I53
sbg114
tp1669
Rp1670
(dp1671
btp1672
Rp1673
(dp1674
btp1675
Rp1676
(dp1677
btp1678
Rp1679
(dp1680
bag7
(g3
(g8
((I0
S'1ba5e353f7ced9L'
p1681
I-61
I53
tp1682
tp1683
Rp1684
(dp1685
g14
I53
sbg1532
g89
g1676
tp1686
Rp1687
(dp1688
bg3
(g8
((I1
S'1L'
p1689
I0
I1
tp1690
tp1691
Rp1692
(dp1693
g14
I53
sbg1565
g5
(g7
(g8
((I0
S'b851eb851eb85L'
p1694
I-57
I52
tp1695
tp1696
Rp1697
(dp1698
g14
I53
sbg3
(g8
((I0
S'13333333333333L'
p1699
I-55
I53
tp1700
tp1701
Rp1702
(dp1703
g14
I53
sbg163
tp1704
Rp1705
(dp1706
bg3
(g8
((I0
S'1ba5e353f7ced9L'
p1707
I-61
I53
tp1708
tp1709
Rp1710
(dp1711
g14
I53
sbg114
tp1712
Rp1713
(dp1714
btp1715
Rp1716
(dp1717
btp1718
Rp1719
(dp1720
bg1493
g1579
tp1721
Rp1722
(dp1723
btp1724
Rp1725
(dp1726
baa(lp1727
g3
(g8
((I0
S'13333333333333L'
p1728
I-55
I53
tp1729
tp1730
Rp1731
(dp1732
g14
I53
sbg1499
g928
tp1733
Rp1734
(dp1735
bag105
ag7
(g3
(g8
((I1
S'48ce703afb7e9L'
p1736
I-56
I51
tp1737
tp1738
Rp1739
(dp1740
g14
I53
sbg1499
g928
g114
tp1741
Rp1742
(dp1743
bg3
(g8
((I0
S'1L'
p1744
I0
I1
tp1745
tp1746
Rp1747
(dp1748
g14
I53
sbg1513
g971
g1516
g1519
tp1749
Rp1750
(dp1751
btp1752
Rp1753
(dp1754
baa(lp1755
g105
ag3
(g8
((I0
S'13333333333333L'
p1756
I-55
I53
tp1757
tp1758
Rp1759
(dp1760
g14
I53
sbg1532
g67
(g7
(g8
((I0
S'b851eb851eb85L'
p1761
I-56
I52
tp1762
tp1763
Rp1764
(dp1765
g14
I53
sbg1662
g1670
tp1766
Rp1767
(dp1768
btp1769
Rp1770
(dp1771
btp1772
Rp1773
(dp1774
bag7
(g3
(g8
((I0
S'1ba5e353f7ced9L'
p1775
I-61
I53
tp1776
tp1777
Rp1778
(dp1779
g14
I53
sbg1532
g89
g1770
tp1780
Rp1781
(dp1782
bg3
(g8
((I1
S'1L'
p1783
I0
I1
tp1784
tp1785
Rp1786
(dp1787
g14
I53
sbg1565
g5
(g7
(g8
((I0
S'b851eb851eb85L'
p1788
I-56
I52
tp1789
tp1790
Rp1791
(dp1792
g14
I53
sbg1705
g1713
tp1793
Rp1794
(dp1795
btp1796
Rp1797
(dp1798
bg1493
g1579
tp1799
Rp1800
(dp1801
btp1802
Rp1803
(dp1804
baa(lp1805
g3
(g8
((I0
S'13333333333333L'
p1806
I-55
I53
tp1807
tp1808
Rp1809
(dp1810
g14
I53
sbg1499
g1044
tp1811
Rp1812
(dp1813
bag105
ag7
(g3
(g8
((I1
S'48ce703afb7e9L'
p1814
I-56
I51
tp1815
tp1816
Rp1817
(dp1818
g14
I53
sbg1499
g1044
g114
tp1819
Rp1820
(dp1821
bg3
(g8
((I0
S'1L'
p1822
I0
I1
tp1823
tp1824
Rp1825
(dp1826
g14
I53
sbg1513
g1071
g1516
g1519
tp1827
Rp1828
(dp1829
btp1830
Rp1831
(dp1832
baaa(lp1833
(lp1834
g3
(g4
(g5
(g6
(g7
(g8
((I0
S'3243f6a8885a3L'
p1835
I-49
I50
tp1836
tp1837
Rp1838
(dp1839
g14
I53
sbg18
tp1840
Rp1841
(dp1842
btp1843
Rp1844
(dp1845
btp1846
Rp1847
(dp1848
bg62
tp1849
Rp1850
(dp1851
bg98
tp1852
Rp1853
(dp1854
bag105
ag7
(g3
(g8
((I1
S'c49ba5e353f7dL'
p1855
I-58
I52
tp1856
tp1857
Rp1858
(dp1859
g14
I53
sbg1850
g98
g114
tp1860
Rp1861
(dp1862
bg3
(g4
(g1844
g121
tp1863
Rp1864
(dp1865
bg135
g67
(g1844
tp1866
Rp1867
(dp1868
bg112
(g1841
tp1869
Rp1870
(dp1871
btp1872
Rp1873
(dp1874
btp1875
Rp1876
(dp1877
baa(lp1878
g105
ag3
(g4
(g5
(g1870
tp1879
Rp1880
(dp1881
bg62
tp1882
Rp1883
(dp1884
bg67
(g7
(g8
((I1
S'3L'
p1885
I-2
I2
tp1886
tp1887
Rp1888
(dp1889
g14
I53
sbg163
g3
(g8
((I0
S'47ae147ae147bL'
p1890
I-55
I51
tp1891
tp1892
Rp1893
(dp1894
g14
I53
sbg114
tp1895
Rp1896
(dp1897
btp1898
Rp1899
(dp1900
btp1901
Rp1902
(dp1903
btp1904
Rp1905
(dp1906
bag7
(g3
(g8
((I0
S'47ae147ae147bL'
p1907
I-55
I51
tp1908
tp1909
Rp1910
(dp1911
g14
I53
sbg1883
g89
g1902
tp1912
Rp1913
(dp1914
bg3
(g62
g4
(g1870
g121
tp1915
Rp1916
(dp1917
bg5
(g7
(g8
((I1
S'3L'
p1918
I-2
I2
tp1919
tp1920
Rp1921
(dp1922
g14
I53
sbg163
g1896
tp1923
Rp1924
(dp1925
btp1926
Rp1927
(dp1928
bg1844
g67
(g1870
tp1929
Rp1930
(dp1931
btp1932
Rp1933
(dp1934
btp1935
Rp1936
(dp1937
baa(lp1938
g3
(g1850
g239
tp1939
Rp1940
(dp1941
bag105
ag7
(g3
(g8
((I1
S'c49ba5e353f7dL'
p1942
I-58
I52
tp1943
tp1944
Rp1945
(dp1946
g14
I53
sbg1850
g239
g114
tp1947
Rp1948
(dp1949
bg3
(g1864
g261
g1867
g1870
tp1950
Rp1951
(dp1952
btp1953
Rp1954
(dp1955
baa(lp1956
g105
ag3
(g1883
g67
(g7
(g8
((I0
S'3L'
p1957
I-2
I2
tp1958
tp1959
Rp1960
(dp1961
g14
I53
sbg163
g1896
tp1962
Rp1963
(dp1964
btp1965
Rp1966
(dp1967
btp1968
Rp1969
(dp1970
bag7
(g3
(g8
((I0
S'47ae147ae147bL'
p1971
I-55
I51
tp1972
tp1973
Rp1974
(dp1975
g14
I53
sbg1883
g89
g1966
tp1976
Rp1977
(dp1978
bg3
(g62
g1916
g5
(g7
(g8
((I0
S'3L'
p1979
I-2
I2
tp1980
tp1981
Rp1982
(dp1983
g14
I53
sbg163
g1896
tp1984
Rp1985
(dp1986
btp1987
Rp1988
(dp1989
bg1844
g1930
tp1990
Rp1991
(dp1992
btp1993
Rp1994
(dp1995
baa(lp1996
g105
ag3
(g8
((I0
S'13333333333333L'
p1997
I-55
I53
tp1998
tp1999
Rp2000
(dp2001
g14
I53
sbg1883
g67
(g7
(g8
((I0
S'b851eb851eb85L'
p2002
I-57
I52
tp2003
tp2004
Rp2005
(dp2006
g14
I53
sbg3
(g8
((I0
S'13333333333333L'
p2007
I-55
I53
tp2008
tp2009
Rp2010
(dp2011
g14
I53
sbg163
tp2012
Rp2013
(dp2014
bg3
(g8
((I0
S'15810624dd2f1bL'
p2015
I-60
I53
tp2016
tp2017
Rp2018
(dp2019
g14
I53
sbg114
tp2020
Rp2021
(dp2022
btp2023
Rp2024
(dp2025
btp2026
Rp2027
(dp2028
btp2029
Rp2030
(dp2031
bag7
(g3
(g8
((I0
S'15810624dd2f1bL'
p2032
I-60
I53
tp2033
tp2034
Rp2035
(dp2036
g14
I53
sbg1883
g89
g2027
tp2037
Rp2038
(dp2039
bg3
(g8
((I1
S'1L'
p2040
I0
I1
tp2041
tp2042
Rp2043
(dp2044
g14
I53
sbg1916
g5
(g7
(g8
((I0
S'b851eb851eb85L'
p2045
I-57
I52
tp2046
tp2047
Rp2048
(dp2049
g14
I53
sbg3
(g8
((I0
S'13333333333333L'
p2050
I-55
I53
tp2051
tp2052
Rp2053
(dp2054
g14
I53
sbg163
tp2055
Rp2056
(dp2057
bg3
(g8
((I0
S'15810624dd2f1bL'
p2058
I-60
I53
tp2059
tp2060
Rp2061
(dp2062
g14
I53
sbg114
tp2063
Rp2064
(dp2065
btp2066
Rp2067
(dp2068
btp2069
Rp2070
(dp2071
bg1844
g1930
tp2072
Rp2073
(dp2074
btp2075
Rp2076
(dp2077
baa(lp2078
g3
(g8
((I0
S'13333333333333L'
p2079
I-55
I53
tp2080
tp2081
Rp2082
(dp2083
g14
I53
sbg1850
g430
tp2084
Rp2085
(dp2086
bag105
ag7
(g3
(g8
((I1
S'ebedfa43fe5c9L'
p2087
I-61
I52
tp2088
tp2089
Rp2090
(dp2091
g14
I53
sbg1850
g430
g114
tp2092
Rp2093
(dp2094
bg3
(g8
((I0
S'1L'
p2095
I0
I1
tp2096
tp2097
Rp2098
(dp2099
g14
I53
sbg1864
g473
g1867
g1870
tp2100
Rp2101
(dp2102
btp2103
Rp2104
(dp2105
baa(lp2106
g105
ag3
(g8
((I0
S'13333333333333L'
p2107
I-55
I53
tp2108
tp2109
Rp2110
(dp2111
g14
I53
sbg1883
g67
(g7
(g8
((I0
S'b851eb851eb85L'
p2112
I-56
I52
tp2113
tp2114
Rp2115
(dp2116
g14
I53
sbg2013
g2021
tp2117
Rp2118
(dp2119
btp2120
Rp2121
(dp2122
btp2123
Rp2124
(dp2125
bag7
(g3
(g8
((I0
S'15810624dd2f1bL'
p2126
I-60
I53
tp2127
tp2128
Rp2129
(dp2130
g14
I53
sbg1883
g89
g2121
tp2131
Rp2132
(dp2133
bg3
(g8
((I1
S'1L'
p2134
I0
I1
tp2135
tp2136
Rp2137
(dp2138
g14
I53
sbg1916
g5
(g7
(g8
((I0
S'b851eb851eb85L'
p2139
I-56
I52
tp2140
tp2141
Rp2142
(dp2143
g14
I53
sbg2056
g2064
tp2144
Rp2145
(dp2146
btp2147
Rp2148
(dp2149
bg1844
g1930
tp2150
Rp2151
(dp2152
btp2153
Rp2154
(dp2155
baa(lp2156
g3
(g8
((I0
S'13333333333333L'
p2157
I-55
I53
tp2158
tp2159
Rp2160
(dp2161
g14
I53
sbg1850
g546
tp2162
Rp2163
(dp2164
bag105
ag7
(g3
(g8
((I1
S'ebedfa43fe5c9L'
p2165
I-61
I52
tp2166
tp2167
Rp2168
(dp2169
g14
I53
sbg1850
g546
g114
tp2170
Rp2171
(dp2172
bg3
(g8
((I0
S'1L'
p2173
I0
I1
tp2174
tp2175
Rp2176
(dp2177
g14
I53
sbg1864
g573
g1867
g1870
tp2178
Rp2179
(dp2180
btp2181
Rp2182
(dp2183
baaa.