(lp0
(lp1
(lp2
csympy.core.mul
Mul
p3
(csympy.core.numbers
NegativeOne
p4
(I-1
tp5
Rp6
(dp7
bcsympy.core.power
Pow
p8
(g8
(csympy.functions.elementary.trigonometric
cos
p9
(csympy.core.add
Add
p10
(csympy.core.numbers
Float
p11
((I1
S'3243f6a8885a3L'
p12
I-49
I50
tp13
tp14
Rp15
(dp16
S'_prec'
p17
I53
sbcsympy.core.symbol
Symbol
p18
(S'theta'
p19
tp20
Rp21
(dp22
S'_assumptions'
p23
ccopy_reg
_reconstructor
p24
(csympy.core.assumptions
StdFactKB
p25
c__builtin__
dict
p26
(dp27
S'real'
p28
NsS'irrational'
p29
NsS'antihermitian'
p30
NsS'nonpositive'
p31
NsS'algebraic'
p32
NsS'hermitian'
p33
NsS'infinite'
p34
NsS'integer'
p35
NsS'imaginary'
p36
NsS'odd'
p37
NsS'even'
p38
NsS'commutative'
p39
I01
sS'zero'
p40
NsS'positive'
p41
NsS'negative'
p42
NsS'nonnegative'
p43
NsS'complex'
p44
NsS'rational'
p45
NsS'finite'
p46
Nstp47
Rp48
(dp49
S'_generator'
p50
(dp51
sbsbtp52
Rp53
(dp54
btp55
Rp56
(dp57
bcsympy.core.numbers
Integer
p58
(I2
tp59
Rp60
(dp61
btp62
Rp63
(dp64
bcsympy.core.numbers
Rational
p65
(I-1
I2
tp66
Rp67
(dp68
btp69
Rp70
(dp71
bg8
(g10
(g11
((I1
S'3L'
p72
I-2
I2
tp73
tp74
Rp75
(dp76
g17
I53
sbg18
(S'x'
p77
tp78
Rp79
(dp80
g23
g24
(g25
g26
(dp81
g28
Nsg29
Nsg30
Nsg31
Nsg32
Nsg33
Nsg34
Nsg35
Nsg36
Nsg37
Nsg38
Nsg39
I01
sg40
Nsg41
Nsg42
Nsg43
Nsg44
Nsg45
Nsg46
Nstp82
Rp83
(dp84
g50
(dp85
sbsbg3
(g11
((I0
S'c49ba5e353f7dL'
p86
I-58
I52
tp87
tp88
Rp89
(dp90
g17
I53
sbg9
(g21
tp91
Rp92
(dp93
btp94
Rp95
(dp96
btp97
Rp98
(dp99
bg6
tp100
Rp101
(dp102
bg10
(g3
(g10
(g3
(g6
csympy.functions.elementary.complexes
im
p103
(g79
tp104
Rp105
(dp106
btp107
Rp108
(dp109
bg3
(g11
((I0
S'c49ba5e353f7dL'
p110
I-58
I52
tp111
tp112
Rp113
(dp114
g17
I53
sbcsympy.functions.elementary.trigonometric
sin
p115
(csympy.functions.elementary.complexes
re
p116
(g21
tp117
Rp118
(dp119
btp120
Rp121
(dp122
bcsympy.functions.elementary.hyperbolic
sinh
p123
(g103
(g21
tp124
Rp125
(dp126
btp127
Rp128
(dp129
btp130
Rp131
(dp132
btp133
Rp134
(dp135
bcsympy.core.function
Derivative
p136
(g105
csympy.core.containers
Tuple
p137
(g79
csympy.core.numbers
One
p138
(I1
tp139
Rp140
(dp141
btp142
Rp143
(dp144
btp145
Rp146
(dp147
btp148
Rp149
(dp150
bg3
(g6
g10
(g11
((I1
S'3L'
p151
I-2
I2
tp152
tp153
Rp154
(dp155
g17
I53
sbg3
(g11
((I0
S'c49ba5e353f7dL'
p156
I-58
I52
tp157
tp158
Rp159
(dp160
g17
I53
sbg9
(g118
tp161
Rp162
(dp163
bcsympy.functions.elementary.hyperbolic
cosh
p164
(g125
tp165
Rp166
(dp167
btp168
Rp169
(dp170
bg116
(g79
tp171
Rp172
(dp173
btp174
Rp175
(dp176
bg136
(g172
g137
(g79
g140
tp177
Rp178
(dp179
btp180
Rp181
(dp182
btp183
Rp184
(dp185
btp186
Rp187
(dp188
bcsympy.functions.elementary.complexes
sign
p189
(g98
tp190
Rp191
(dp192
btp193
Rp194
(dp195
bacsympy.core.numbers
Zero
p196
(I0
tp197
Rp198
(dp199
bag3
(g8
(g63
csympy.core.numbers
Half
p200
(I1
I2
tp201
Rp202
(dp203
btp204
Rp205
(dp206
bg101
g8
(g56
g58
(I-3
tp207
Rp208
(dp209
btp210
Rp211
(dp212
bg10
(g3
(g98
csympy.functions.elementary.complexes
Abs
p213
(g10
(g11
((I1
S'3L'
p214
I-2
I2
tp215
tp216
Rp217
(dp218
g17
I53
sbg79
g95
tp219
Rp220
(dp221
btp222
Rp223
(dp224
bg115
(g53
tp225
Rp226
(dp227
btp228
Rp229
(dp230
bg3
(g11
((I0
S'c49ba5e353f7dL'
p231
I-58
I52
tp232
tp233
Rp234
(dp235
g17
I53
sbg10
(g3
(g134
g10
(g3
(g136
(g125
g137
(g21
g140
tp236
Rp237
(dp238
btp239
Rp240
(dp241
bg166
g121
tp242
Rp243
(dp244
bg3
(g136
(g118
g137
(g21
g140
tp245
Rp246
(dp247
btp248
Rp249
(dp250
bg162
g128
tp251
Rp252
(dp253
btp254
Rp255
(dp256
btp257
Rp258
(dp259
bg3
(g6
g10
(g3
(g136
(g118
g137
(g21
g140
tp260
Rp261
(dp262
btp263
Rp264
(dp265
bg166
g121
tp266
Rp267
(dp268
bg3
(g6
g136
(g125
g137
(g21
g140
tp269
Rp270
(dp271
btp272
Rp273
(dp274
bg162
g128
tp275
Rp276
(dp277
btp278
Rp279
(dp280
bg175
tp281
Rp282
(dp283
btp284
Rp285
(dp286
bg56
g191
tp287
Rp288
(dp289
btp290
Rp291
(dp292
btp293
Rp294
(dp295
baa(lp296
g198
ag3
(g6
g8
(g8
(g226
g60
tp297
Rp298
(dp299
bg67
tp300
Rp301
(dp302
bg8
(g10
(g11
((I0
S'3L'
p303
I-2
I2
tp304
tp305
Rp306
(dp307
g17
I53
sbg3
(g6
g18
(S'y'
p308
tp309
Rp310
(dp311
g23
g24
(g25
g26
(dp312
g28
NsS'polar'
p313
Nsg29
Nsg30
Nsg31
Nsg32
Nsg33
Nsg34
Nsg35
Nsg36
Nsg37
Nsg38
Nsg39
I01
sg40
Nsg41
Nsg42
Nsg43
Nsg44
Nsg45
Nsg46
Nstp314
Rp315
(dp316
g50
(dp317
sbsbtp318
Rp319
(dp320
bg3
(g11
((I0
S'47ae147ae147bL'
p321
I-55
I51
tp322
tp323
Rp324
(dp325
g17
I53
sbg115
(g21
tp326
Rp327
(dp328
btp329
Rp330
(dp331
btp332
Rp333
(dp334
bg6
tp335
Rp336
(dp337
bg10
(g3
(g10
(g3
(g6
g103
(g310
tp338
Rp339
(dp340
btp341
Rp342
(dp343
bg3
(g11
((I0
S'47ae147ae147bL'
p344
I-55
I51
tp345
tp346
Rp347
(dp348
g17
I53
sbg162
g128
tp349
Rp350
(dp351
btp352
Rp353
(dp354
bg136
(g339
g137
(g310
g140
tp355
Rp356
(dp357
btp358
Rp359
(dp360
btp361
Rp362
(dp363
bg3
(g10
(g11
((I0
S'3L'
p364
I-2
I2
tp365
tp366
Rp367
(dp368
g17
I53
sbg3
(g6
g116
(g310
tp369
Rp370
(dp371
btp372
Rp373
(dp374
bg3
(g11
((I0
S'47ae147ae147bL'
p375
I-55
I51
tp376
tp377
Rp378
(dp379
g17
I53
sbg166
g121
tp380
Rp381
(dp382
btp383
Rp384
(dp385
bg136
(g370
g137
(g310
g140
tp386
Rp387
(dp388
btp389
Rp390
(dp391
btp392
Rp393
(dp394
btp395
Rp396
(dp397
bg189
(g333
tp398
Rp399
(dp400
btp401
Rp402
(dp403
bag3
(g6
g8
(g298
g202
tp404
Rp405
(dp406
bg336
g8
(g226
g208
tp407
Rp408
(dp409
bg10
(g3
(g333
g213
(g10
(g11
((I0
S'3L'
p410
I-2
I2
tp411
tp412
Rp413
(dp414
g17
I53
sbg3
(g6
g310
tp415
Rp416
(dp417
bg3
(g11
((I0
S'47ae147ae147bL'
p418
I-55
I51
tp419
tp420
Rp421
(dp422
g17
I53
sbg327
tp423
Rp424
(dp425
btp426
Rp427
(dp428
btp429
Rp430
(dp431
bg56
tp432
Rp433
(dp434
bg3
(g11
((I0
S'47ae147ae147bL'
p435
I-55
I51
tp436
tp437
Rp438
(dp439
g17
I53
sbg10
(g3
(g353
g10
(g3
(g136
(g118
g137
(g21
g140
tp440
Rp441
(dp442
btp443
Rp444
(dp445
bg121
g128
tp446
Rp447
(dp448
bg3
(g6
g136
(g125
g137
(g21
g140
tp449
Rp450
(dp451
btp452
Rp453
(dp454
bg162
g166
tp455
Rp456
(dp457
btp458
Rp459
(dp460
btp461
Rp462
(dp463
bg3
(g6
g10
(g3
(g136
(g125
g137
(g21
g140
tp464
Rp465
(dp466
btp467
Rp468
(dp469
bg121
g128
tp470
Rp471
(dp472
bg3
(g136
(g118
g137
(g21
g140
tp473
Rp474
(dp475
btp476
Rp477
(dp478
bg162
g166
tp479
Rp480
(dp481
btp482
Rp483
(dp484
bg384
tp485
Rp486
(dp487
btp488
Rp489
(dp490
bg399
g226
tp491
Rp492
(dp493
btp494
Rp495
(dp496
btp497
Rp498
(dp499
baa(lp500
g3
(g6
g70
g8
(g10
(g11
((I0
S'3L'
p501
I-2
I2
tp502
tp503
Rp504
(dp505
g17
I53
sbg79
g3
(g11
((I0
S'c49ba5e353f7dL'
p506
I-58
I52
tp507
tp508
Rp509
(dp510
g17
I53
sbg92
tp511
Rp512
(dp513
btp514
Rp515
(dp516
bg6
tp517
Rp518
(dp519
bg10
(g3
(g10
(g3
(g6
g105
tp520
Rp521
(dp522
bg3
(g11
((I0
S'c49ba5e353f7dL'
p523
I-58
I52
tp524
tp525
Rp526
(dp527
g17
I53
sbg121
g128
tp528
Rp529
(dp530
btp531
Rp532
(dp533
bg146
tp534
Rp535
(dp536
bg3
(g6
g10
(g11
((I0
S'3L'
p537
I-2
I2
tp538
tp539
Rp540
(dp541
g17
I53
sbg3
(g11
((I0
S'c49ba5e353f7dL'
p542
I-58
I52
tp543
tp544
Rp545
(dp546
g17
I53
sbg162
g166
tp547
Rp548
(dp549
bg172
tp550
Rp551
(dp552
bg136
(g172
g137
(g79
g140
tp553
Rp554
(dp555
btp556
Rp557
(dp558
btp559
Rp560
(dp561
btp562
Rp563
(dp564
bg189
(g515
tp565
Rp566
(dp567
btp568
Rp569
(dp570
bag198
ag3
(g205
g518
g211
g10
(g3
(g515
g213
(g10
(g11
((I0
S'3L'
p571
I-2
I2
tp572
tp573
Rp574
(dp575
g17
I53
sbg79
g95
tp576
Rp577
(dp578
btp579
Rp580
(dp581
bg226
tp582
Rp583
(dp584
bg3
(g11
((I0
S'c49ba5e353f7dL'
p585
I-58
I52
tp586
tp587
Rp588
(dp589
g17
I53
sbg10
(g3
(g134
g255
tp590
Rp591
(dp592
bg3
(g6
g10
(g3
(g264
g166
g121
tp593
Rp594
(dp595
bg3
(g6
g273
g162
g128
tp596
Rp597
(dp598
btp599
Rp600
(dp601
bg551
tp602
Rp603
(dp604
btp605
Rp606
(dp607
bg56
g566
tp608
Rp609
(dp610
btp611
Rp612
(dp613
btp614
Rp615
(dp616
baa(lp617
g198
ag3
(g6
g301
g8
(g10
(g11
((I0
S'3L'
p618
I-2
I2
tp619
tp620
Rp621
(dp622
g17
I53
sbg310
g3
(g11
((I1
S'47ae147ae147bL'
p623
I-55
I51
tp624
tp625
Rp626
(dp627
g17
I53
sbg327
tp628
Rp629
(dp630
btp631
Rp632
(dp633
bg6
tp634
Rp635
(dp636
bg10
(g3
(g10
(g3
(g6
g339
tp637
Rp638
(dp639
bg3
(g11
((I0
S'47ae147ae147bL'
p640
I-55
I51
tp641
tp642
Rp643
(dp644
g17
I53
sbg162
g128
tp645
Rp646
(dp647
btp648
Rp649
(dp650
bg136
(g339
g137
(g310
g140
tp651
Rp652
(dp653
btp654
Rp655
(dp656
btp657
Rp658
(dp659
bg3
(g6
g10
(g11
((I0
S'3L'
p660
I-2
I2
tp661
tp662
Rp663
(dp664
g17
I53
sbg3
(g11
((I1
S'47ae147ae147bL'
p665
I-55
I51
tp666
tp667
Rp668
(dp669
g17
I53
sbg166
g121
tp670
Rp671
(dp672
bg370
tp673
Rp674
(dp675
bg136
(g370
g137
(g310
g140
tp676
Rp677
(dp678
btp679
Rp680
(dp681
btp682
Rp683
(dp684
btp685
Rp686
(dp687
bg189
(g632
tp688
Rp689
(dp690
btp691
Rp692
(dp693
bag3
(g6
g405
g635
g408
g10
(g3
(g632
g213
(g10
(g11
((I0
S'3L'
p694
I-2
I2
tp695
tp696
Rp697
(dp698
g17
I53
sbg310
g3
(g11
((I1
S'47ae147ae147bL'
p699
I-55
I51
tp700
tp701
Rp702
(dp703
g17
I53
sbg327
tp704
Rp705
(dp706
btp707
Rp708
(dp709
btp710
Rp711
(dp712
bg56
tp713
Rp714
(dp715
bg3
(g11
((I0
S'47ae147ae147bL'
p716
I-55
I51
tp717
tp718
Rp719
(dp720
g17
I53
sbg10
(g3
(g353
g459
tp721
Rp722
(dp723
bg3
(g10
(g3
(g468
g121
g128
tp724
Rp725
(dp726
bg3
(g477
g162
g166
tp727
Rp728
(dp729
btp730
Rp731
(dp732
bg674
tp733
Rp734
(dp735
btp736
Rp737
(dp738
bg689
g226
tp739
Rp740
(dp741
btp742
Rp743
(dp744
btp745
Rp746
(dp747
baaa(lp748
(lp749
g3
(g6
g8
(g8
(g9
(g10
(g11
((I1
S'10c152382d7365L'
p750
I-52
I53
tp751
tp752
Rp753
(dp754
g17
I53
sbg21
tp755
Rp756
(dp757
btp758
Rp759
(dp760
bg60
tp761
Rp762
(dp763
bg67
tp764
Rp765
(dp766
bg8
(g10
(g11
((I1
S'3L'
p767
I-2
I2
tp768
tp769
Rp770
(dp771
g17
I53
sbg79
g3
(g11
((I0
S'795810624dd2fL'
p772
I-54
I51
tp773
tp774
Rp775
(dp776
g17
I53
sbg92
tp777
Rp778
(dp779
btp780
Rp781
(dp782
bg6
tp783
Rp784
(dp785
bg10
(g3
(g10
(g3
(g6
g105
tp786
Rp787
(dp788
bg3
(g11
((I0
S'795810624dd2fL'
p789
I-54
I51
tp790
tp791
Rp792
(dp793
g17
I53
sbg121
g128
tp794
Rp795
(dp796
btp797
Rp798
(dp799
bg136
(g105
g137
(g79
g140
tp800
Rp801
(dp802
btp803
Rp804
(dp805
btp806
Rp807
(dp808
bg3
(g6
g10
(g11
((I1
S'3L'
p809
I-2
I2
tp810
tp811
Rp812
(dp813
g17
I53
sbg3
(g11
((I0
S'795810624dd2fL'
p814
I-54
I51
tp815
tp816
Rp817
(dp818
g17
I53
sbg162
g166
tp819
Rp820
(dp821
bg172
tp822
Rp823
(dp824
bg136
(g172
g137
(g79
g140
tp825
Rp826
(dp827
btp828
Rp829
(dp830
btp831
Rp832
(dp833
btp834
Rp835
(dp836
bg189
(g781
tp837
Rp838
(dp839
btp840
Rp841
(dp842
bag198
ag3
(g8
(g762
g202
tp843
Rp844
(dp845
bg784
g8
(g759
g208
tp846
Rp847
(dp848
bg10
(g3
(g781
g213
(g10
(g11
((I1
S'3L'
p849
I-2
I2
tp850
tp851
Rp852
(dp853
g17
I53
sbg79
g3
(g11
((I0
S'795810624dd2fL'
p854
I-54
I51
tp855
tp856
Rp857
(dp858
g17
I53
sbg92
tp859
Rp860
(dp861
btp862
Rp863
(dp864
btp865
Rp866
(dp867
bg115
(g756
tp868
Rp869
(dp870
btp871
Rp872
(dp873
bg3
(g11
((I0
S'795810624dd2fL'
p874
I-54
I51
tp875
tp876
Rp877
(dp878
g17
I53
sbg10
(g3
(g798
g10
(g3
(g136
(g125
g137
(g21
g140
tp879
Rp880
(dp881
btp882
Rp883
(dp884
bg166
g121
tp885
Rp886
(dp887
bg3
(g136
(g118
g137
(g21
g140
tp888
Rp889
(dp890
btp891
Rp892
(dp893
bg162
g128
tp894
Rp895
(dp896
btp897
Rp898
(dp899
btp900
Rp901
(dp902
bg3
(g6
g10
(g3
(g136
(g118
g137
(g21
g140
tp903
Rp904
(dp905
btp906
Rp907
(dp908
bg166
g121
tp909
Rp910
(dp911
bg3
(g6
g136
(g125
g137
(g21
g140
tp912
Rp913
(dp914
btp915
Rp916
(dp917
bg162
g128
tp918
Rp919
(dp920
btp921
Rp922
(dp923
bg823
tp924
Rp925
(dp926
btp927
Rp928
(dp929
bg759
g838
tp930
Rp931
(dp932
btp933
Rp934
(dp935
btp936
Rp937
(dp938
baa(lp939
g198
ag3
(g6
g8
(g8
(g869
g60
tp940
Rp941
(dp942
bg67
tp943
Rp944
(dp945
bg8
(g10
(g11
((I0
S'3L'
p946
I-2
I2
tp947
tp948
Rp949
(dp950
g17
I53
sbg3
(g6
g310
tp951
Rp952
(dp953
bg3
(g11
((I0
S'b851eb851eb85L'
p954
I-57
I52
tp955
tp956
Rp957
(dp958
g17
I53
sbg327
tp959
Rp960
(dp961
btp962
Rp963
(dp964
bg6
tp965
Rp966
(dp967
bg10
(g3
(g10
(g3
(g6
g339
tp968
Rp969
(dp970
bg3
(g11
((I0
S'b851eb851eb85L'
p971
I-57
I52
tp972
tp973
Rp974
(dp975
g17
I53
sbg162
g128
tp976
Rp977
(dp978
btp979
Rp980
(dp981
bg359
tp982
Rp983
(dp984
bg3
(g10
(g11
((I0
S'3L'
p985
I-2
I2
tp986
tp987
Rp988
(dp989
g17
I53
sbg3
(g6
g370
tp990
Rp991
(dp992
bg3
(g11
((I0
S'b851eb851eb85L'
p993
I-57
I52
tp994
tp995
Rp996
(dp997
g17
I53
sbg166
g121
tp998
Rp999
(dp1000
btp1001
Rp1002
(dp1003
bg390
tp1004
Rp1005
(dp1006
btp1007
Rp1008
(dp1009
bg189
(g963
tp1010
Rp1011
(dp1012
btp1013
Rp1014
(dp1015
bag3
(g6
g8
(g941
g202
tp1016
Rp1017
(dp1018
bg966
g8
(g869
g208
tp1019
Rp1020
(dp1021
bg10
(g3
(g963
g213
(g10
(g11
((I0
S'3L'
p1022
I-2
I2
tp1023
tp1024
Rp1025
(dp1026
g17
I53
sbg416
g3
(g11
((I0
S'b851eb851eb85L'
p1027
I-57
I52
tp1028
tp1029
Rp1030
(dp1031
g17
I53
sbg327
tp1032
Rp1033
(dp1034
btp1035
Rp1036
(dp1037
btp1038
Rp1039
(dp1040
bg759
tp1041
Rp1042
(dp1043
bg3
(g11
((I0
S'b851eb851eb85L'
p1044
I-57
I52
tp1045
tp1046
Rp1047
(dp1048
g17
I53
sbg10
(g3
(g980
g10
(g3
(g136
(g118
g137
(g21
g140
tp1049
Rp1050
(dp1051
btp1052
Rp1053
(dp1054
bg121
g128
tp1055
Rp1056
(dp1057
bg3
(g6
g136
(g125
g137
(g21
g140
tp1058
Rp1059
(dp1060
btp1061
Rp1062
(dp1063
bg162
g166
tp1064
Rp1065
(dp1066
btp1067
Rp1068
(dp1069
btp1070
Rp1071
(dp1072
bg3
(g6
g10
(g3
(g136
(g125
g137
(g21
g140
tp1073
Rp1074
(dp1075
btp1076
Rp1077
(dp1078
bg121
g128
tp1079
Rp1080
(dp1081
bg3
(g136
(g118
g137
(g21
g140
tp1082
Rp1083
(dp1084
btp1085
Rp1086
(dp1087
bg162
g166
tp1088
Rp1089
(dp1090
btp1091
Rp1092
(dp1093
bg1002
tp1094
Rp1095
(dp1096
btp1097
Rp1098
(dp1099
bg1011
g869
tp1100
Rp1101
(dp1102
btp1103
Rp1104
(dp1105
btp1106
Rp1107
(dp1108
baa(lp1109
g3
(g6
g765
g8
(g10
(g11
((I0
S'3L'
p1110
I-2
I2
tp1111
tp1112
Rp1113
(dp1114
g17
I53
sbg79
g3
(g11
((I0
S'795810624dd2fL'
p1115
I-54
I51
tp1116
tp1117
Rp1118
(dp1119
g17
I53
sbg92
tp1120
Rp1121
(dp1122
btp1123
Rp1124
(dp1125
bg6
tp1126
Rp1127
(dp1128
bg10
(g3
(g10
(g3
(g6
g105
tp1129
Rp1130
(dp1131
bg3
(g11
((I0
S'795810624dd2fL'
p1132
I-54
I51
tp1133
tp1134
Rp1135
(dp1136
g17
I53
sbg121
g128
tp1137
Rp1138
(dp1139
btp1140
Rp1141
(dp1142
bg804
tp1143
Rp1144
(dp1145
bg3
(g6
g10
(g11
((I0
S'3L'
p1146
I-2
I2
tp1147
tp1148
Rp1149
(dp1150
g17
I53
sbg3
(g11
((I0
S'795810624dd2fL'
p1151
I-54
I51
tp1152
tp1153
Rp1154
(dp1155
g17
I53
sbg162
g166
tp1156
Rp1157
(dp1158
bg172
tp1159
Rp1160
(dp1161
bg136
(g172
g137
(g79
g140
tp1162
Rp1163
(dp1164
btp1165
Rp1166
(dp1167
btp1168
Rp1169
(dp1170
btp1171
Rp1172
(dp1173
bg189
(g1124
tp1174
Rp1175
(dp1176
btp1177
Rp1178
(dp1179
bag198
ag3
(g844
g1127
g847
g10
(g3
(g1124
g213
(g10
(g11
((I0
S'3L'
p1180
I-2
I2
tp1181
tp1182
Rp1183
(dp1184
g17
I53
sbg79
g860
tp1185
Rp1186
(dp1187
btp1188
Rp1189
(dp1190
bg869
tp1191
Rp1192
(dp1193
bg3
(g11
((I0
S'795810624dd2fL'
p1194
I-54
I51
tp1195
tp1196
Rp1197
(dp1198
g17
I53
sbg10
(g3
(g798
g898
tp1199
Rp1200
(dp1201
bg3
(g6
g10
(g3
(g907
g166
g121
tp1202
Rp1203
(dp1204
bg3
(g6
g916
g162
g128
tp1205
Rp1206
(dp1207
btp1208
Rp1209
(dp1210
bg1160
tp1211
Rp1212
(dp1213
btp1214
Rp1215
(dp1216
bg759
g1175
tp1217
Rp1218
(dp1219
btp1220
Rp1221
(dp1222
btp1223
Rp1224
(dp1225
baa(lp1226
g198
ag3
(g6
g944
g8
(g10
(g11
((I0
S'3L'
p1227
I-2
I2
tp1228
tp1229
Rp1230
(dp1231
g17
I53
sbg310
g3
(g11
((I1
S'b851eb851eb85L'
p1232
I-57
I52
tp1233
tp1234
Rp1235
(dp1236
g17
I53
sbg327
tp1237
Rp1238
(dp1239
btp1240
Rp1241
(dp1242
bg6
tp1243
Rp1244
(dp1245
bg10
(g3
(g10
(g3
(g6
g339
tp1246
Rp1247
(dp1248
bg3
(g11
((I0
S'b851eb851eb85L'
p1249
I-57
I52
tp1250
tp1251
Rp1252
(dp1253
g17
I53
sbg162
g128
tp1254
Rp1255
(dp1256
btp1257
Rp1258
(dp1259
bg136
(g339
g137
(g310
g140
tp1260
Rp1261
(dp1262
btp1263
Rp1264
(dp1265
btp1266
Rp1267
(dp1268
bg3
(g6
g10
(g11
((I0
S'3L'
p1269
I-2
I2
tp1270
tp1271
Rp1272
(dp1273
g17
I53
sbg3
(g11
((I1
S'b851eb851eb85L'
p1274
I-57
I52
tp1275
tp1276
Rp1277
(dp1278
g17
I53
sbg166
g121
tp1279
Rp1280
(dp1281
bg370
tp1282
Rp1283
(dp1284
bg136
(g370
g137
(g310
g140
tp1285
Rp1286
(dp1287
btp1288
Rp1289
(dp1290
btp1291
Rp1292
(dp1293
btp1294
Rp1295
(dp1296
bg189
(g1241
tp1297
Rp1298
(dp1299
btp1300
Rp1301
(dp1302
bag3
(g6
g1017
g1244
g1020
g10
(g3
(g1241
g213
(g10
(g11
((I0
S'3L'
p1303
I-2
I2
tp1304
tp1305
Rp1306
(dp1307
g17
I53
sbg310
g3
(g11
((I1
S'b851eb851eb85L'
p1308
I-57
I52
tp1309
tp1310
Rp1311
(dp1312
g17
I53
sbg327
tp1313
Rp1314
(dp1315
btp1316
Rp1317
(dp1318
btp1319
Rp1320
(dp1321
bg759
tp1322
Rp1323
(dp1324
bg3
(g11
((I0
S'b851eb851eb85L'
p1325
I-57
I52
tp1326
tp1327
Rp1328
(dp1329
g17
I53
sbg10
(g3
(g980
g1068
tp1330
Rp1331
(dp1332
bg3
(g10
(g3
(g1077
g121
g128
tp1333
Rp1334
(dp1335
bg3
(g1086
g162
g166
tp1336
Rp1337
(dp1338
btp1339
Rp1340
(dp1341
bg1283
tp1342
Rp1343
(dp1344
btp1345
Rp1346
(dp1347
bg1298
g869
tp1348
Rp1349
(dp1350
btp1351
Rp1352
(dp1353
btp1354
Rp1355
(dp1356
baaa(lp1357
(lp1358
g3
(g6
g8
(g8
(g92
g60
tp1359
Rp1360
(dp1361
bg67
tp1362
Rp1363
(dp1364
bg8
(g10
(g11
((I1
S'3L'
p1365
I-2
I2
tp1366
tp1367
Rp1368
(dp1369
g17
I53
sbg79
g3
(g11
((I0
S'4189374bc6a7fL'
p1370
I-53
I51
tp1371
tp1372
Rp1373
(dp1374
g17
I53
sbg92
tp1375
Rp1376
(dp1377
btp1378
Rp1379
(dp1380
bg6
tp1381
Rp1382
(dp1383
bg10
(g3
(g10
(g3
(g6
g105
tp1384
Rp1385
(dp1386
bg3
(g11
((I0
S'4189374bc6a7fL'
p1387
I-53
I51
tp1388
tp1389
Rp1390
(dp1391
g17
I53
sbg121
g128
tp1392
Rp1393
(dp1394
btp1395
Rp1396
(dp1397
bg136
(g105
g137
(g79
g140
tp1398
Rp1399
(dp1400
btp1401
Rp1402
(dp1403
btp1404
Rp1405
(dp1406
bg3
(g6
g10
(g11
((I1
S'3L'
p1407
I-2
I2
tp1408
tp1409
Rp1410
(dp1411
g17
I53
sbg3
(g11
((I0
S'4189374bc6a7fL'
p1412
I-53
I51
tp1413
tp1414
Rp1415
(dp1416
g17
I53
sbg162
g166
tp1417
Rp1418
(dp1419
bg172
tp1420
Rp1421
(dp1422
bg136
(g172
g137
(g79
g140
tp1423
Rp1424
(dp1425
btp1426
Rp1427
(dp1428
btp1429
Rp1430
(dp1431
btp1432
Rp1433
(dp1434
bg189
(g1379
tp1435
Rp1436
(dp1437
btp1438
Rp1439
(dp1440
bag198
ag3
(g8
(g1360
g202
tp1441
Rp1442
(dp1443
bg1382
g8
(g92
g208
tp1444
Rp1445
(dp1446
bg10
(g3
(g1379
g213
(g10
(g11
((I1
S'3L'
p1447
I-2
I2
tp1448
tp1449
Rp1450
(dp1451
g17
I53
sbg79
g3
(g11
((I0
S'4189374bc6a7fL'
p1452
I-53
I51
tp1453
tp1454
Rp1455
(dp1456
g17
I53
sbg92
tp1457
Rp1458
(dp1459
btp1460
Rp1461
(dp1462
btp1463
Rp1464
(dp1465
bg327
tp1466
Rp1467
(dp1468
bg3
(g11
((I0
S'4189374bc6a7fL'
p1469
I-53
I51
tp1470
tp1471
Rp1472
(dp1473
g17
I53
sbg10
(g3
(g1396
g10
(g3
(g136
(g125
g137
(g21
g140
tp1474
Rp1475
(dp1476
btp1477
Rp1478
(dp1479
bg166
g121
tp1480
Rp1481
(dp1482
bg3
(g136
(g118
g137
(g21
g140
tp1483
Rp1484
(dp1485
btp1486
Rp1487
(dp1488
bg162
g128
tp1489
Rp1490
(dp1491
btp1492
Rp1493
(dp1494
btp1495
Rp1496
(dp1497
bg3
(g6
g10
(g3
(g136
(g118
g137
(g21
g140
tp1498
Rp1499
(dp1500
btp1501
Rp1502
(dp1503
bg166
g121
tp1504
Rp1505
(dp1506
bg3
(g6
g136
(g125
g137
(g21
g140
tp1507
Rp1508
(dp1509
btp1510
Rp1511
(dp1512
bg162
g128
tp1513
Rp1514
(dp1515
btp1516
Rp1517
(dp1518
bg1421
tp1519
Rp1520
(dp1521
btp1522
Rp1523
(dp1524
bg92
g1436
tp1525
Rp1526
(dp1527
btp1528
Rp1529
(dp1530
btp1531
Rp1532
(dp1533
baa(lp1534
g198
ag3
(g8
(g8
(g327
g60
tp1535
Rp1536
(dp1537
bg67
tp1538
Rp1539
(dp1540
bg8
(g10
(g11
((I1
S'3L'
p1541
I-2
I2
tp1542
tp1543
Rp1544
(dp1545
g17
I53
sbg310
tp1546
Rp1547
(dp1548
bg6
tp1549
Rp1550
(dp1551
bg10
(g3
(g10
(g11
((I1
S'3L'
p1552
I-2
I2
tp1553
tp1554
Rp1555
(dp1556
g17
I53
sbg370
tp1557
Rp1558
(dp1559
bg136
(g370
g137
(g310
g140
tp1560
Rp1561
(dp1562
btp1563
Rp1564
(dp1565
btp1566
Rp1567
(dp1568
bg3
(g136
(g339
g137
(g310
g140
tp1569
Rp1570
(dp1571
btp1572
Rp1573
(dp1574
bg339
tp1575
Rp1576
(dp1577
btp1578
Rp1579
(dp1580
bg189
(g1547
tp1581
Rp1582
(dp1583
btp1584
Rp1585
(dp1586
bag3
(g6
g1539
g8
(csympy.functions.elementary.trigonometric
tan
p1587
(g21
tp1588
Rp1589
(dp1590
bg6
tp1591
Rp1592
(dp1593
bg213
(g10
(g11
((I1
S'3L'
p1594
I-2
I2
tp1595
tp1596
Rp1597
(dp1598
g17
I53
sbg310
tp1599
Rp1600
(dp1601
btp1602
Rp1603
(dp1604
btp1605
Rp1606
(dp1607
baa(lp1608
g3
(g6
g1363
g8
(g10
(g11
((I0
S'3L'
p1609
I-2
I2
tp1610
tp1611
Rp1612
(dp1613
g17
I53
sbg79
g1376
tp1614
Rp1615
(dp1616
bg6
tp1617
Rp1618
(dp1619
bg10
(g3
(g10
(g3
(g6
g105
tp1620
Rp1621
(dp1622
bg3
(g11
((I0
S'4189374bc6a7fL'
p1623
I-53
I51
tp1624
tp1625
Rp1626
(dp1627
g17
I53
sbg121
g128
tp1628
Rp1629
(dp1630
btp1631
Rp1632
(dp1633
bg1402
tp1634
Rp1635
(dp1636
bg3
(g6
g10
(g11
((I0
S'3L'
p1637
I-2
I2
tp1638
tp1639
Rp1640
(dp1641
g17
I53
sbg3
(g11
((I0
S'4189374bc6a7fL'
p1642
I-53
I51
tp1643
tp1644
Rp1645
(dp1646
g17
I53
sbg162
g166
tp1647
Rp1648
(dp1649
bg172
tp1650
Rp1651
(dp1652
bg136
(g172
g137
(g79
g140
tp1653
Rp1654
(dp1655
btp1656
Rp1657
(dp1658
btp1659
Rp1660
(dp1661
btp1662
Rp1663
(dp1664
bg189
(g1615
tp1665
Rp1666
(dp1667
btp1668
Rp1669
(dp1670
bag198
ag3
(g1442
g1618
g1445
g10
(g3
(g1615
g213
(g10
(g11
((I0
S'3L'
p1671
I-2
I2
tp1672
tp1673
Rp1674
(dp1675
g17
I53
sbg79
g1458
tp1676
Rp1677
(dp1678
btp1679
Rp1680
(dp1681
bg327
tp1682
Rp1683
(dp1684
bg3
(g11
((I0
S'4189374bc6a7fL'
p1685
I-53
I51
tp1686
tp1687
Rp1688
(dp1689
g17
I53
sbg10
(g3
(g1396
g1493
tp1690
Rp1691
(dp1692
bg3
(g6
g10
(g3
(g1502
g166
g121
tp1693
Rp1694
(dp1695
bg3
(g6
g1511
g162
g128
tp1696
Rp1697
(dp1698
btp1699
Rp1700
(dp1701
bg1651
tp1702
Rp1703
(dp1704
btp1705
Rp1706
(dp1707
bg92
g1666
tp1708
Rp1709
(dp1710
btp1711
Rp1712
(dp1713
btp1714
Rp1715
(dp1716
baa(lp1717
g198
ag3
(g1539
g8
(g10
(g11
((I0
S'3L'
p1718
I-2
I2
tp1719
tp1720
Rp1721
(dp1722
g17
I53
sbg310
tp1723
Rp1724
(dp1725
bg6
tp1726
Rp1727
(dp1728
bg10
(g3
(g10
(g11
((I0
S'3L'
p1729
I-2
I2
tp1730
tp1731
Rp1732
(dp1733
g17
I53
sbg370
tp1734
Rp1735
(dp1736
bg136
(g370
g137
(g310
g140
tp1737
Rp1738
(dp1739
btp1740
Rp1741
(dp1742
btp1743
Rp1744
(dp1745
bg3
(g136
(g339
g137
(g310
g140
tp1746
Rp1747
(dp1748
btp1749
Rp1750
(dp1751
bg339
tp1752
Rp1753
(dp1754
btp1755
Rp1756
(dp1757
bg189
(g1724
tp1758
Rp1759
(dp1760
btp1761
Rp1762
(dp1763
bag3
(g6
g1539
g1592
g213
(g10
(g11
((I0
S'3L'
p1764
I-2
I2
tp1765
tp1766
Rp1767
(dp1768
g17
I53
sbg310
tp1769
Rp1770
(dp1771
btp1772
Rp1773
(dp1774
btp1775
Rp1776
(dp1777
baaa(lp1778
(lp1779
g3
(g6
g8
(g8
(g9
(g10
(g11
((I0
S'10c152382d7365L'
p1780
I-52
I53
tp1781
tp1782
Rp1783
(dp1784
g17
I53
sbg21
tp1785
Rp1786
(dp1787
btp1788
Rp1789
(dp1790
bg60
tp1791
Rp1792
(dp1793
bg67
tp1794
Rp1795
(dp1796
bg8
(g10
(g11
((I1
S'3L'
p1797
I-2
I2
tp1798
tp1799
Rp1800
(dp1801
g17
I53
sbg79
g3
(g11
((I0
S'795810624dd2fL'
p1802
I-54
I51
tp1803
tp1804
Rp1805
(dp1806
g17
I53
sbg92
tp1807
Rp1808
(dp1809
btp1810
Rp1811
(dp1812
bg6
tp1813
Rp1814
(dp1815
bg10
(g3
(g10
(g3
(g6
g105
tp1816
Rp1817
(dp1818
bg3
(g11
((I0
S'795810624dd2fL'
p1819
I-54
I51
tp1820
tp1821
Rp1822
(dp1823
g17
I53
sbg121
g128
tp1824
Rp1825
(dp1826
btp1827
Rp1828
(dp1829
bg804
tp1830
Rp1831
(dp1832
bg3
(g6
g10
(g11
((I1
S'3L'
p1833
I-2
I2
tp1834
tp1835
Rp1836
(dp1837
g17
I53
sbg3
(g11
((I0
S'795810624dd2fL'
p1838
I-54
I51
tp1839
tp1840
Rp1841
(dp1842
g17
I53
sbg162
g166
tp1843
Rp1844
(dp1845
bg172
tp1846
Rp1847
(dp1848
bg829
tp1849
Rp1850
(dp1851
btp1852
Rp1853
(dp1854
bg838
tp1855
Rp1856
(dp1857
bag198
ag3
(g8
(g1792
g202
tp1858
Rp1859
(dp1860
bg1814
g8
(g1789
g208
tp1861
Rp1862
(dp1863
bg10
(g3
(g1811
g866
g115
(g10
(g11
((I0
S'10c152382d7365L'
p1864
I-52
I53
tp1865
tp1866
Rp1867
(dp1868
g17
I53
sbg21
tp1869
Rp1870
(dp1871
btp1872
Rp1873
(dp1874
btp1875
Rp1876
(dp1877
bg3
(g11
((I0
S'795810624dd2fL'
p1878
I-54
I51
tp1879
tp1880
Rp1881
(dp1882
g17
I53
sbg10
(g3
(g1828
g10
(g3
(g883
g166
g121
tp1883
Rp1884
(dp1885
bg3
(g892
g162
g128
tp1886
Rp1887
(dp1888
btp1889
Rp1890
(dp1891
btp1892
Rp1893
(dp1894
bg3
(g6
g10
(g3
(g136
(g118
g137
(g21
g140
tp1895
Rp1896
(dp1897
btp1898
Rp1899
(dp1900
bg166
g121
tp1901
Rp1902
(dp1903
bg3
(g6
g136
(g125
g137
(g21
g140
tp1904
Rp1905
(dp1906
btp1907
Rp1908
(dp1909
bg162
g128
tp1910
Rp1911
(dp1912
btp1913
Rp1914
(dp1915
bg1847
tp1916
Rp1917
(dp1918
btp1919
Rp1920
(dp1921
bg9
(g1870
tp1922
Rp1923
(dp1924
bg838
tp1925
Rp1926
(dp1927
btp1928
Rp1929
(dp1930
btp1931
Rp1932
(dp1933
baa(lp1934
g198
ag3
(g8
(g8
(g115
(g1786
tp1935
Rp1936
(dp1937
bg60
tp1938
Rp1939
(dp1940
bg67
tp1941
Rp1942
(dp1943
bg8
(g10
(g11
((I1
S'3L'
p1944
I-2
I2
tp1945
tp1946
Rp1947
(dp1948
g17
I53
sbg310
g3
(g11
((I0
S'b851eb851eb85L'
p1949
I-57
I52
tp1950
tp1951
Rp1952
(dp1953
g17
I53
sbg327
tp1954
Rp1955
(dp1956
btp1957
Rp1958
(dp1959
bg6
tp1960
Rp1961
(dp1962
bg10
(g3
(g10
(g3
(g11
((I0
S'b851eb851eb85L'
p1963
I-57
I52
tp1964
tp1965
Rp1966
(dp1967
g17
I53
sbg162
g128
tp1968
Rp1969
(dp1970
bg339
tp1971
Rp1972
(dp1973
bg136
(g339
g137
(g310
g140
tp1974
Rp1975
(dp1976
btp1977
Rp1978
(dp1979
btp1980
Rp1981
(dp1982
bg3
(g10
(g11
((I1
S'3L'
p1983
I-2
I2
tp1984
tp1985
Rp1986
(dp1987
g17
I53
sbg3
(g11
((I0
S'b851eb851eb85L'
p1988
I-57
I52
tp1989
tp1990
Rp1991
(dp1992
g17
I53
sbg166
g121
tp1993
Rp1994
(dp1995
bg370
tp1996
Rp1997
(dp1998
bg136
(g370
g137
(g310
g140
tp1999
Rp2000
(dp2001
btp2002
Rp2003
(dp2004
btp2005
Rp2006
(dp2007
btp2008
Rp2009
(dp2010
bg189
(g1958
tp2011
Rp2012
(dp2013
btp2014
Rp2015
(dp2016
bag3
(g6
g8
(g1939
g202
tp2017
Rp2018
(dp2019
bg1961
g8
(g1873
g208
tp2020
Rp2021
(dp2022
bg10
(g3
(g1958
g213
(g10
(g11
((I1
S'3L'
p2023
I-2
I2
tp2024
tp2025
Rp2026
(dp2027
g17
I53
sbg310
g3
(g11
((I0
S'b851eb851eb85L'
p2028
I-57
I52
tp2029
tp2030
Rp2031
(dp2032
g17
I53
sbg327
tp2033
Rp2034
(dp2035
btp2036
Rp2037
(dp2038
btp2039
Rp2040
(dp2041
bg1923
tp2042
Rp2043
(dp2044
bg3
(g11
((I0
S'b851eb851eb85L'
p2045
I-57
I52
tp2046
tp2047
Rp2048
(dp2049
g17
I53
sbg10
(g3
(g10
(g3
(g11
((I0
S'b851eb851eb85L'
p2050
I-57
I52
tp2051
tp2052
Rp2053
(dp2054
g17
I53
sbg162
g128
tp2055
Rp2056
(dp2057
bg339
tp2058
Rp2059
(dp2060
bg10
(g3
(g1053
g121
g128
tp2061
Rp2062
(dp2063
bg3
(g6
g1062
g162
g166
tp2064
Rp2065
(dp2066
btp2067
Rp2068
(dp2069
btp2070
Rp2071
(dp2072
bg3
(g6
g10
(g3
(g136
(g125
g137
(g21
g140
tp2073
Rp2074
(dp2075
btp2076
Rp2077
(dp2078
bg121
g128
tp2079
Rp2080
(dp2081
bg3
(g136
(g118
g137
(g21
g140
tp2082
Rp2083
(dp2084
btp2085
Rp2086
(dp2087
bg162
g166
tp2088
Rp2089
(dp2090
btp2091
Rp2092
(dp2093
bg10
(g11
((I1
S'3L'
p2094
I-2
I2
tp2095
tp2096
Rp2097
(dp2098
g17
I53
sbg3
(g11
((I0
S'b851eb851eb85L'
p2099
I-57
I52
tp2100
tp2101
Rp2102
(dp2103
g17
I53
sbg166
g121
tp2104
Rp2105
(dp2106
bg370
tp2107
Rp2108
(dp2109
btp2110
Rp2111
(dp2112
btp2113
Rp2114
(dp2115
bg2012
g1873
tp2116
Rp2117
(dp2118
btp2119
Rp2120
(dp2121
btp2122
Rp2123
(dp2124
baa(lp2125
g3
(g6
g1795
g8
(g10
(g11
((I0
S'3L'
p2126
I-2
I2
tp2127
tp2128
Rp2129
(dp2130
g17
I53
sbg79
g3
(g11
((I0
S'795810624dd2fL'
p2131
I-54
I51
tp2132
tp2133
Rp2134
(dp2135
g17
I53
sbg92
tp2136
Rp2137
(dp2138
btp2139
Rp2140
(dp2141
bg6
tp2142
Rp2143
(dp2144
bg10
(g3
(g10
(g3
(g6
g105
tp2145
Rp2146
(dp2147
bg3
(g11
((I0
S'795810624dd2fL'
p2148
I-54
I51
tp2149
tp2150
Rp2151
(dp2152
g17
I53
sbg121
g128
tp2153
Rp2154
(dp2155
btp2156
Rp2157
(dp2158
bg804
tp2159
Rp2160
(dp2161
bg3
(g6
g10
(g11
((I0
S'3L'
p2162
I-2
I2
tp2163
tp2164
Rp2165
(dp2166
g17
I53
sbg3
(g11
((I0
S'795810624dd2fL'
p2167
I-54
I51
tp2168
tp2169
Rp2170
(dp2171
g17
I53
sbg162
g166
tp2172
Rp2173
(dp2174
bg172
tp2175
Rp2176
(dp2177
bg1166
tp2178
Rp2179
(dp2180
btp2181
Rp2182
(dp2183
bg1175
tp2184
Rp2185
(dp2186
bag198
ag3
(g1859
g2143
g1862
g10
(g3
(g2140
g1189
g1873
tp2187
Rp2188
(dp2189
bg3
(g11
((I0
S'795810624dd2fL'
p2190
I-54
I51
tp2191
tp2192
Rp2193
(dp2194
g17
I53
sbg10
(g3
(g1828
g1890
tp2195
Rp2196
(dp2197
bg3
(g6
g10
(g3
(g1899
g166
g121
tp2198
Rp2199
(dp2200
bg3
(g6
g1908
g162
g128
tp2201
Rp2202
(dp2203
btp2204
Rp2205
(dp2206
bg2176
tp2207
Rp2208
(dp2209
btp2210
Rp2211
(dp2212
bg1923
g1175
tp2213
Rp2214
(dp2215
btp2216
Rp2217
(dp2218
btp2219
Rp2220
(dp2221
baa(lp2222
g198
ag3
(g1942
g8
(g10
(g11
((I0
S'3L'
p2223
I-2
I2
tp2224
tp2225
Rp2226
(dp2227
g17
I53
sbg310
g3
(g11
((I0
S'b851eb851eb85L'
p2228
I-57
I52
tp2229
tp2230
Rp2231
(dp2232
g17
I53
sbg327
tp2233
Rp2234
(dp2235
btp2236
Rp2237
(dp2238
bg6
tp2239
Rp2240
(dp2241
bg10
(g3
(g10
(g3
(g11
((I0
S'b851eb851eb85L'
p2242
I-57
I52
tp2243
tp2244
Rp2245
(dp2246
g17
I53
sbg162
g128
tp2247
Rp2248
(dp2249
bg339
tp2250
Rp2251
(dp2252
bg1978
tp2253
Rp2254
(dp2255
bg3
(g10
(g11
((I0
S'3L'
p2256
I-2
I2
tp2257
tp2258
Rp2259
(dp2260
g17
I53
sbg3
(g11
((I0
S'b851eb851eb85L'
p2261
I-57
I52
tp2262
tp2263
Rp2264
(dp2265
g17
I53
sbg166
g121
tp2266
Rp2267
(dp2268
bg370
tp2269
Rp2270
(dp2271
bg136
(g370
g137
(g310
g140
tp2272
Rp2273
(dp2274
btp2275
Rp2276
(dp2277
btp2278
Rp2279
(dp2280
btp2281
Rp2282
(dp2283
bg189
(g2237
tp2284
Rp2285
(dp2286
btp2287
Rp2288
(dp2289
bag3
(g6
g2018
g2240
g2021
g10
(g3
(g2237
g213
(g10
(g11
((I0
S'3L'
p2290
I-2
I2
tp2291
tp2292
Rp2293
(dp2294
g17
I53
sbg310
g2034
tp2295
Rp2296
(dp2297
btp2298
Rp2299
(dp2300
bg1923
tp2301
Rp2302
(dp2303
bg3
(g11
((I0
S'b851eb851eb85L'
p2304
I-57
I52
tp2305
tp2306
Rp2307
(dp2308
g17
I53
sbg10
(g3
(g2059
g2068
tp2309
Rp2310
(dp2311
bg3
(g6
g10
(g3
(g2077
g121
g128
tp2312
Rp2313
(dp2314
bg3
(g2086
g162
g166
tp2315
Rp2316
(dp2317
btp2318
Rp2319
(dp2320
bg10
(g11
((I0
S'3L'
p2321
I-2
I2
tp2322
tp2323
Rp2324
(dp2325
g17
I53
sbg3
(g11
((I0
S'b851eb851eb85L'
p2326
I-57
I52
tp2327
tp2328
Rp2329
(dp2330
g17
I53
sbg166
g121
tp2331
Rp2332
(dp2333
bg370
tp2334
Rp2335
(dp2336
btp2337
Rp2338
(dp2339
btp2340
Rp2341
(dp2342
bg2285
g1873
tp2343
Rp2344
(dp2345
btp2346
Rp2347
(dp2348
btp2349
Rp2350
(dp2351
baaa(lp2352
(lp2353
g3
(g6
g8
(g8
(g9
(g10
(g11
((I0
S'3243f6a8885a3L'
p2354
I-49
I50
tp2355
tp2356
Rp2357
(dp2358
g17
I53
sbg21
tp2359
Rp2360
(dp2361
btp2362
Rp2363
(dp2364
bg60
tp2365
Rp2366
(dp2367
bg67
tp2368
Rp2369
(dp2370
bg8
(g10
(g11
((I1
S'3L'
p2371
I-2
I2
tp2372
tp2373
Rp2374
(dp2375
g17
I53
sbg79
g3
(g11
((I0
S'c49ba5e353f7dL'
p2376
I-58
I52
tp2377
tp2378
Rp2379
(dp2380
g17
I53
sbg92
tp2381
Rp2382
(dp2383
btp2384
Rp2385
(dp2386
bg6
tp2387
Rp2388
(dp2389
bg10
(g3
(g10
(g3
(g6
g105
tp2390
Rp2391
(dp2392
bg3
(g11
((I0
S'c49ba5e353f7dL'
p2393
I-58
I52
tp2394
tp2395
Rp2396
(dp2397
g17
I53
sbg121
g128
tp2398
Rp2399
(dp2400
btp2401
Rp2402
(dp2403
bg146
tp2404
Rp2405
(dp2406
bg3
(g6
g10
(g11
((I1
S'3L'
p2407
I-2
I2
tp2408
tp2409
Rp2410
(dp2411
g17
I53
sbg3
(g11
((I0
S'c49ba5e353f7dL'
p2412
I-58
I52
tp2413
tp2414
Rp2415
(dp2416
g17
I53
sbg162
g166
tp2417
Rp2418
(dp2419
bg172
tp2420
Rp2421
(dp2422
bg181
tp2423
Rp2424
(dp2425
btp2426
Rp2427
(dp2428
bg189
(g2385
tp2429
Rp2430
(dp2431
btp2432
Rp2433
(dp2434
bag198
ag3
(g8
(g2366
g202
tp2435
Rp2436
(dp2437
bg2388
g8
(g2363
g208
tp2438
Rp2439
(dp2440
bg10
(g3
(g2385
g223
g115
(g10
(g11
((I0
S'3243f6a8885a3L'
p2441
I-49
I50
tp2442
tp2443
Rp2444
(dp2445
g17
I53
sbg21
tp2446
Rp2447
(dp2448
btp2449
Rp2450
(dp2451
btp2452
Rp2453
(dp2454
bg3
(g11
((I0
S'c49ba5e353f7dL'
p2455
I-58
I52
tp2456
tp2457
Rp2458
(dp2459
g17
I53
sbg10
(g3
(g2402
g10
(g3
(g240
g166
g121
tp2460
Rp2461
(dp2462
bg3
(g249
g162
g128
tp2463
Rp2464
(dp2465
btp2466
Rp2467
(dp2468
btp2469
Rp2470
(dp2471
bg3
(g6
g10
(g3
(g136
(g118
g137
(g21
g140
tp2472
Rp2473
(dp2474
btp2475
Rp2476
(dp2477
bg166
g121
tp2478
Rp2479
(dp2480
bg3
(g6
g136
(g125
g137
(g21
g140
tp2481
Rp2482
(dp2483
btp2484
Rp2485
(dp2486
bg162
g128
tp2487
Rp2488
(dp2489
btp2490
Rp2491
(dp2492
bg2421
tp2493
Rp2494
(dp2495
btp2496
Rp2497
(dp2498
bg9
(g2447
tp2499
Rp2500
(dp2501
bg2430
tp2502
Rp2503
(dp2504
btp2505
Rp2506
(dp2507
btp2508
Rp2509
(dp2510
baa(lp2511
g198
ag3
(g8
(g8
(g115
(g2360
tp2512
Rp2513
(dp2514
bg60
tp2515
Rp2516
(dp2517
bg67
tp2518
Rp2519
(dp2520
bg8
(g10
(g11
((I1
S'3L'
p2521
I-2
I2
tp2522
tp2523
Rp2524
(dp2525
g17
I53
sbg310
g3
(g11
((I0
S'47ae147ae147bL'
p2526
I-55
I51
tp2527
tp2528
Rp2529
(dp2530
g17
I53
sbg327
tp2531
Rp2532
(dp2533
btp2534
Rp2535
(dp2536
bg6
tp2537
Rp2538
(dp2539
bg10
(g3
(g10
(g3
(g11
((I0
S'47ae147ae147bL'
p2540
I-55
I51
tp2541
tp2542
Rp2543
(dp2544
g17
I53
sbg162
g128
tp2545
Rp2546
(dp2547
bg339
tp2548
Rp2549
(dp2550
bg136
(g339
g137
(g310
g140
tp2551
Rp2552
(dp2553
btp2554
Rp2555
(dp2556
btp2557
Rp2558
(dp2559
bg3
(g10
(g11
((I1
S'3L'
p2560
I-2
I2
tp2561
tp2562
Rp2563
(dp2564
g17
I53
sbg3
(g11
((I0
S'47ae147ae147bL'
p2565
I-55
I51
tp2566
tp2567
Rp2568
(dp2569
g17
I53
sbg166
g121
tp2570
Rp2571
(dp2572
bg370
tp2573
Rp2574
(dp2575
bg136
(g370
g137
(g310
g140
tp2576
Rp2577
(dp2578
btp2579
Rp2580
(dp2581
btp2582
Rp2583
(dp2584
btp2585
Rp2586
(dp2587
bg189
(g2535
tp2588
Rp2589
(dp2590
btp2591
Rp2592
(dp2593
bag3
(g6
g8
(g2516
g202
tp2594
Rp2595
(dp2596
bg2538
g8
(g2450
g208
tp2597
Rp2598
(dp2599
bg10
(g3
(g2535
g213
(g10
(g11
((I1
S'3L'
p2600
I-2
I2
tp2601
tp2602
Rp2603
(dp2604
g17
I53
sbg310
g3
(g11
((I0
S'47ae147ae147bL'
p2605
I-55
I51
tp2606
tp2607
Rp2608
(dp2609
g17
I53
sbg327
tp2610
Rp2611
(dp2612
btp2613
Rp2614
(dp2615
btp2616
Rp2617
(dp2618
bg2500
tp2619
Rp2620
(dp2621
bg3
(g11
((I0
S'47ae147ae147bL'
p2622
I-55
I51
tp2623
tp2624
Rp2625
(dp2626
g17
I53
sbg10
(g3
(g10
(g3
(g11
((I0
S'47ae147ae147bL'
p2627
I-55
I51
tp2628
tp2629
Rp2630
(dp2631
g17
I53
sbg162
g128
tp2632
Rp2633
(dp2634
bg339
tp2635
Rp2636
(dp2637
bg10
(g3
(g444
g121
g128
tp2638
Rp2639
(dp2640
bg3
(g6
g453
g162
g166
tp2641
Rp2642
(dp2643
btp2644
Rp2645
(dp2646
btp2647
Rp2648
(dp2649
bg3
(g6
g10
(g3
(g136
(g125
g137
(g21
g140
tp2650
Rp2651
(dp2652
btp2653
Rp2654
(dp2655
bg121
g128
tp2656
Rp2657
(dp2658
bg3
(g136
(g118
g137
(g21
g140
tp2659
Rp2660
(dp2661
btp2662
Rp2663
(dp2664
bg162
g166
tp2665
Rp2666
(dp2667
btp2668
Rp2669
(dp2670
bg10
(g11
((I1
S'3L'
p2671
I-2
I2
tp2672
tp2673
Rp2674
(dp2675
g17
I53
sbg3
(g11
((I0
S'47ae147ae147bL'
p2676
I-55
I51
tp2677
tp2678
Rp2679
(dp2680
g17
I53
sbg166
g121
tp2681
Rp2682
(dp2683
bg370
tp2684
Rp2685
(dp2686
btp2687
Rp2688
(dp2689
btp2690
Rp2691
(dp2692
bg2589
g2450
tp2693
Rp2694
(dp2695
btp2696
Rp2697
(dp2698
btp2699
Rp2700
(dp2701
baa(lp2702
g3
(g6
g2369
g8
(g10
(g11
((I0
S'3L'
p2703
I-2
I2
tp2704
tp2705
Rp2706
(dp2707
g17
I53
sbg79
g3
(g11
((I0
S'c49ba5e353f7dL'
p2708
I-58
I52
tp2709
tp2710
Rp2711
(dp2712
g17
I53
sbg92
tp2713
Rp2714
(dp2715
btp2716
Rp2717
(dp2718
bg6
tp2719
Rp2720
(dp2721
bg10
(g3
(g10
(g3
(g6
g105
tp2722
Rp2723
(dp2724
bg3
(g11
((I0
S'c49ba5e353f7dL'
p2725
I-58
I52
tp2726
tp2727
Rp2728
(dp2729
g17
I53
sbg121
g128
tp2730
Rp2731
(dp2732
btp2733
Rp2734
(dp2735
bg146
tp2736
Rp2737
(dp2738
bg3
(g6
g10
(g11
((I0
S'3L'
p2739
I-2
I2
tp2740
tp2741
Rp2742
(dp2743
g17
I53
sbg3
(g11
((I0
S'c49ba5e353f7dL'
p2744
I-58
I52
tp2745
tp2746
Rp2747
(dp2748
g17
I53
sbg162
g166
tp2749
Rp2750
(dp2751
bg172
tp2752
Rp2753
(dp2754
bg557
tp2755
Rp2756
(dp2757
btp2758
Rp2759
(dp2760
bg189
(g2717
tp2761
Rp2762
(dp2763
btp2764
Rp2765
(dp2766
bag198
ag3
(g2436
g2720
g2439
g10
(g3
(g2717
g580
g2450
tp2767
Rp2768
(dp2769
bg3
(g11
((I0
S'c49ba5e353f7dL'
p2770
I-58
I52
tp2771
tp2772
Rp2773
(dp2774
g17
I53
sbg10
(g3
(g2402
g2467
tp2775
Rp2776
(dp2777
bg3
(g6
g10
(g3
(g2476
g166
g121
tp2778
Rp2779
(dp2780
bg3
(g6
g2485
g162
g128
tp2781
Rp2782
(dp2783
btp2784
Rp2785
(dp2786
bg2753
tp2787
Rp2788
(dp2789
btp2790
Rp2791
(dp2792
bg2500
g2762
tp2793
Rp2794
(dp2795
btp2796
Rp2797
(dp2798
btp2799
Rp2800
(dp2801
baa(lp2802
g198
ag3
(g2519
g8
(g10
(g11
((I0
S'3L'
p2803
I-2
I2
tp2804
tp2805
Rp2806
(dp2807
g17
I53
sbg310
g3
(g11
((I0
S'47ae147ae147bL'
p2808
I-55
I51
tp2809
tp2810
Rp2811
(dp2812
g17
I53
sbg327
tp2813
Rp2814
(dp2815
btp2816
Rp2817
(dp2818
bg6
tp2819
Rp2820
(dp2821
bg10
(g3
(g10
(g3
(g11
((I0
S'47ae147ae147bL'
p2822
I-55
I51
tp2823
tp2824
Rp2825
(dp2826
g17
I53
sbg162
g128
tp2827
Rp2828
(dp2829
bg339
tp2830
Rp2831
(dp2832
bg2555
tp2833
Rp2834
(dp2835
bg3
(g10
(g11
((I0
S'3L'
p2836
I-2
I2
tp2837
tp2838
Rp2839
(dp2840
g17
I53
sbg3
(g11
((I0
S'47ae147ae147bL'
p2841
I-55
I51
tp2842
tp2843
Rp2844
(dp2845
g17
I53
sbg166
g121
tp2846
Rp2847
(dp2848
bg370
tp2849
Rp2850
(dp2851
bg136
(g370
g137
(g310
g140
tp2852
Rp2853
(dp2854
btp2855
Rp2856
(dp2857
btp2858
Rp2859
(dp2860
btp2861
Rp2862
(dp2863
bg189
(g2817
tp2864
Rp2865
(dp2866
btp2867
Rp2868
(dp2869
bag3
(g6
g2595
g2820
g2598
g10
(g3
(g2817
g213
(g10
(g11
((I0
S'3L'
p2870
I-2
I2
tp2871
tp2872
Rp2873
(dp2874
g17
I53
sbg310
g2611
tp2875
Rp2876
(dp2877
btp2878
Rp2879
(dp2880
bg2500
tp2881
Rp2882
(dp2883
bg3
(g11
((I0
S'47ae147ae147bL'
p2884
I-55
I51
tp2885
tp2886
Rp2887
(dp2888
g17
I53
sbg10
(g3
(g2636
g2645
tp2889
Rp2890
(dp2891
bg3
(g6
g10
(g3
(g2654
g121
g128
tp2892
Rp2893
(dp2894
bg3
(g2663
g162
g166
tp2895
Rp2896
(dp2897
btp2898
Rp2899
(dp2900
bg10
(g11
((I0
S'3L'
p2901
I-2
I2
tp2902
tp2903
Rp2904
(dp2905
g17
I53
sbg3
(g11
((I0
S'47ae147ae147bL'
p2906
I-55
I51
tp2907
tp2908
Rp2909
(dp2910
g17
I53
sbg166
g121
tp2911
Rp2912
(dp2913
bg370
tp2914
Rp2915
(dp2916
btp2917
Rp2918
(dp2919
btp2920
Rp2921
(dp2922
bg2865
g2450
tp2923
Rp2924
(dp2925
btp2926
Rp2927
(dp2928
btp2929
Rp2930
(dp2931
baaa.