(lp0
(lp1
(lp2
csympy.core.mul
Mul
p3
(csympy.core.numbers
NegativeOne
p4
(I-1
tp5
Rp6
(dp7
bcsympy.core.power
Pow
p8
(g8
(csympy.functions.elementary.trigonometric
cos
p9
(csympy.core.add
Add
p10
(csympy.core.numbers
Float
p11
((I1
S'3243f6a8885a3L'
p12
I-49
I50
tp13
tp14
Rp15
(dp16
S'_prec'
p17
I53
sbcsympy.core.symbol
Symbol
p18
(S'theta'
p19
tp20
Rp21
(dp22
S'_assumptions'
p23
ccopy_reg
_reconstructor
p24
(csympy.core.assumptions
StdFactKB
p25
c__builtin__
dict
p26
(dp27
S'real'
p28
NsS'irrational'
p29
NsS'antihermitian'
p30
NsS'nonpositive'
p31
NsS'algebraic'
p32
NsS'hermitian'
p33
NsS'infinite'
p34
NsS'integer'
p35
NsS'imaginary'
p36
NsS'odd'
p37
NsS'even'
p38
NsS'commutative'
p39
I01
sS'zero'
p40
NsS'positive'
p41
NsS'negative'
p42
NsS'nonnegative'
p43
NsS'complex'
p44
NsS'rational'
p45
NsS'finite'
p46
Nstp47
Rp48
(dp49
S'_generator'
p50
(dp51
sbsbtp52
Rp53
(dp54
btp55
Rp56
(dp57
bcsympy.core.numbers
Integer
p58
(I2
tp59
Rp60
(dp61
btp62
Rp63
(dp64
bcsympy.core.numbers
Rational
p65
(I-1
I2
tp66
Rp67
(dp68
btp69
Rp70
(dp71
bg8
(g10
(g11
((I1
S'3L'
p72
I-2
I2
tp73
tp74
Rp75
(dp76
g17
I53
sbg18
(S'x'
p77
tp78
Rp79
(dp80
g23
g24
(g25
g26
(dp81
g28
Nsg29
Nsg30
Nsg31
Nsg32
Nsg33
Nsg34
Nsg35
Nsg36
Nsg37
Nsg38
Nsg39
I01
sg40
Nsg41
Nsg42
Nsg43
Nsg44
Nsg45
Nsg46
Nstp82
Rp83
(dp84
g50
(dp85
sbsbg3
(g11
((I0
S'c49ba5e353f7dL'
p86
I-58
I52
tp87
tp88
Rp89
(dp90
g17
I53
sbg9
(g21
tp91
Rp92
(dp93
btp94
Rp95
(dp96
btp97
Rp98
(dp99
bg6
tp100
Rp101
(dp102
bg10
(g3
(g10
(g3
(g6
csympy.functions.elementary.complexes
im
p103
(g79
tp104
Rp105
(dp106
btp107
Rp108
(dp109
bg3
(g11
((I0
S'c49ba5e353f7dL'
p110
I-58
I52
tp111
tp112
Rp113
(dp114
g17
I53
sbcsympy.functions.elementary.trigonometric
sin
p115
(csympy.functions.elementary.complexes
re
p116
(g21
tp117
Rp118
(dp119
btp120
Rp121
(dp122
bcsympy.functions.elementary.hyperbolic
sinh
p123
(g103
(g21
tp124
Rp125
(dp126
btp127
Rp128
(dp129
btp130
Rp131
(dp132
btp133
Rp134
(dp135
bcsympy.core.function
Derivative
p136
(g105
csympy.core.containers
Tuple
p137
(g79
csympy.core.numbers
One
p138
(I1
tp139
Rp140
(dp141
btp142
Rp143
(dp144
btp145
Rp146
(dp147
btp148
Rp149
(dp150
bg3
(g6
g10
(g11
((I1
S'3L'
p151
I-2
I2
tp152
tp153
Rp154
(dp155
g17
I53
sbg3
(g11
((I0
S'c49ba5e353f7dL'
p156
I-58
I52
tp157
tp158
Rp159
(dp160
g17
I53
sbg9
(g118
tp161
Rp162
(dp163
bcsympy.functions.elementary.hyperbolic
cosh
p164
(g125
tp165
Rp166
(dp167
btp168
Rp169
(dp170
bg116
(g79
tp171
Rp172
(dp173
btp174
Rp175
(dp176
bg136
(g172
g137
(g79
g140
tp177
Rp178
(dp179
btp180
Rp181
(dp182
btp183
Rp184
(dp185
btp186
Rp187
(dp188
bcsympy.functions.elementary.complexes
sign
p189
(g98
tp190
Rp191
(dp192
btp193
Rp194
(dp195
bacsympy.core.numbers
Zero
p196
(I0
tp197
Rp198
(dp199
bag3
(g8
(g63
csympy.core.numbers
Half
p200
(I1
I2
tp201
Rp202
(dp203
btp204
Rp205
(dp206
bg101
g8
(g56
g58
(I-3
tp207
Rp208
(dp209
btp210
Rp211
(dp212
bg10
(g3
(g98
csympy.functions.elementary.complexes
Abs
p213
(g10
(g11
((I1
S'3L'
p214
I-2
I2
tp215
tp216
Rp217
(dp218
g17
I53
sbg79
g95
tp219
Rp220
(dp221
btp222
Rp223
(dp224
bg115
(g53
tp225
Rp226
(dp227
btp228
Rp229
(dp230
bg3
(g11
((I0
S'c49ba5e353f7dL'
p231
I-58
I52
tp232
tp233
Rp234
(dp235
g17
I53
sbg10
(g3
(g134
g10
(g3
(g136
(g125
g137
(g21
g140
tp236
Rp237
(dp238
btp239
Rp240
(dp241
bg166
g121
tp242
Rp243
(dp244
bg3
(g136
(g118
g137
(g21
g140
tp245
Rp246
(dp247
btp248
Rp249
(dp250
bg162
g128
tp251
Rp252
(dp253
btp254
Rp255
(dp256
btp257
Rp258
(dp259
bg3
(g6
g10
(g3
(g136
(g118
g137
(g21
g140
tp260
Rp261
(dp262
btp263
Rp264
(dp265
bg166
g121
tp266
Rp267
(dp268
bg3
(g6
g136
(g125
g137
(g21
g140
tp269
Rp270
(dp271
btp272
Rp273
(dp274
bg162
g128
tp275
Rp276
(dp277
btp278
Rp279
(dp280
bg175
tp281
Rp282
(dp283
btp284
Rp285
(dp286
bg56
g191
tp287
Rp288
(dp289
btp290
Rp291
(dp292
btp293
Rp294
(dp295
baa(lp296
g198
ag3
(g6
g8
(g8
(g226
g60
tp297
Rp298
(dp299
bg67
tp300
Rp301
(dp302
bg8
(g10
(g11
((I0
S'3L'
p303
I-2
I2
tp304
tp305
Rp306
(dp307
g17
I53
sbg3
(g6
g18
(S'y'
p308
tp309
Rp310
(dp311
g23
g24
(g25
g26
(dp312
g28
NsS'polar'
p313
Nsg29
Nsg30
Nsg31
Nsg32
Nsg33
Nsg34
Nsg35
Nsg36
Nsg37
Nsg38
Nsg39
I01
sg40
Nsg41
Nsg42
Nsg43
Nsg44
Nsg45
Nsg46
Nstp314
Rp315
(dp316
g50
(dp317
sbsbtp318
Rp319
(dp320
bg3
(g11
((I0
S'47ae147ae147bL'
p321
I-55
I51
tp322
tp323
Rp324
(dp325
g17
I53
sbg115
(g21
tp326
Rp327
(dp328
btp329
Rp330
(dp331
btp332
Rp333
(dp334
bg6
tp335
Rp336
(dp337
bg10
(g3
(g10
(g3
(g6
g103
(g310
tp338
Rp339
(dp340
btp341
Rp342
(dp343
bg3
(g11
((I0
S'47ae147ae147bL'
p344
I-55
I51
tp345
tp346
Rp347
(dp348
g17
I53
sbg162
g128
tp349
Rp350
(dp351
btp352
Rp353
(dp354
bg136
(g339
g137
(g310
g140
tp355
Rp356
(dp357
btp358
Rp359
(dp360
btp361
Rp362
(dp363
bg3
(g10
(g11
((I0
S'3L'
p364
I-2
I2
tp365
tp366
Rp367
(dp368
g17
I53
sbg3
(g6
g116
(g310
tp369
Rp370
(dp371
btp372
Rp373
(dp374
bg3
(g11
((I0
S'47ae147ae147bL'
p375
I-55
I51
tp376
tp377
Rp378
(dp379
g17
I53
sbg166
g121
tp380
Rp381
(dp382
btp383
Rp384
(dp385
bg136
(g370
g137
(g310
g140
tp386
Rp387
(dp388
btp389
Rp390
(dp391
btp392
Rp393
(dp394
btp395
Rp396
(dp397
bg189
(g333
tp398
Rp399
(dp400
btp401
Rp402
(dp403
bag3
(g6
g8
(g298
g202
tp404
Rp405
(dp406
bg336
g8
(g226
g208
tp407
Rp408
(dp409
bg10
(g3
(g333
g213
(g10
(g11
((I0
S'3L'
p410
I-2
I2
tp411
tp412
Rp413
(dp414
g17
I53
sbg3
(g6
g310
tp415
Rp416
(dp417
bg3
(g11
((I0
S'47ae147ae147bL'
p418
I-55
I51
tp419
tp420
Rp421
(dp422
g17
I53
sbg327
tp423
Rp424
(dp425
btp426
Rp427
(dp428
btp429
Rp430
(dp431
bg56
tp432
Rp433
(dp434
bg3
(g11
((I0
S'47ae147ae147bL'
p435
I-55
I51
tp436
tp437
Rp438
(dp439
g17
I53
sbg10
(g3
(g353
g10
(g3
(g136
(g118
g137
(g21
g140
tp440
Rp441
(dp442
btp443
Rp444
(dp445
bg121
g128
tp446
Rp447
(dp448
bg3
(g6
g136
(g125
g137
(g21
g140
tp449
Rp450
(dp451
btp452
Rp453
(dp454
bg162
g166
tp455
Rp456
(dp457
btp458
Rp459
(dp460
btp461
Rp462
(dp463
bg3
(g6
g10
(g3
(g136
(g125
g137
(g21
g140
tp464
Rp465
(dp466
btp467
Rp468
(dp469
bg121
g128
tp470
Rp471
(dp472
bg3
(g136
(g118
g137
(g21
g140
tp473
Rp474
(dp475
btp476
Rp477
(dp478
bg162
g166
tp479
Rp480
(dp481
btp482
Rp483
(dp484
bg384
tp485
Rp486
(dp487
btp488
Rp489
(dp490
bg399
g226
tp491
Rp492
(dp493
btp494
Rp495
(dp496
btp497
Rp498
(dp499
baa(lp500
g3
(g6
g70
g8
(g10
(g11
((I0
S'3L'
p501
I-2
I2
tp502
tp503
Rp504
(dp505
g17
I53
sbg79
g3
(g11
((I0
S'c49ba5e353f7dL'
p506
I-58
I52
tp507
tp508
Rp509
(dp510
g17
I53
sbg92
tp511
Rp512
(dp513
btp514
Rp515
(dp516
bg6
tp517
Rp518
(dp519
bg10
(g3
(g10
(g3
(g6
g105
tp520
Rp521
(dp522
bg3
(g11
((I0
S'c49ba5e353f7dL'
p523
I-58
I52
tp524
tp525
Rp526
(dp527
g17
I53
sbg121
g128
tp528
Rp529
(dp530
btp531
Rp532
(dp533
bg146
tp534
Rp535
(dp536
bg3
(g6
g10
(g11
((I0
S'3L'
p537
I-2
I2
tp538
tp539
Rp540
(dp541
g17
I53
sbg3
(g11
((I0
S'c49ba5e353f7dL'
p542
I-58
I52
tp543
tp544
Rp545
(dp546
g17
I53
sbg162
g166
tp547
Rp548
(dp549
bg172
tp550
Rp551
(dp552
bg136
(g172
g137
(g79
g140
tp553
Rp554
(dp555
btp556
Rp557
(dp558
btp559
Rp560
(dp561
btp562
Rp563
(dp564
bg189
(g515
tp565
Rp566
(dp567
btp568
Rp569
(dp570
bag198
ag3
(g205
g518
g211
g10
(g3
(g515
g213
(g10
(g11
((I0
S'3L'
p571
I-2
I2
tp572
tp573
Rp574
(dp575
g17
I53
sbg79
g95
tp576
Rp577
(dp578
btp579
Rp580
(dp581
bg226
tp582
Rp583
(dp584
bg3
(g11
((I0
S'c49ba5e353f7dL'
p585
I-58
I52
tp586
tp587
Rp588
(dp589
g17
I53
sbg10
(g3
(g134
g255
tp590
Rp591
(dp592
bg3
(g6
g10
(g3
(g264
g166
g121
tp593
Rp594
(dp595
bg3
(g6
g273
g162
g128
tp596
Rp597
(dp598
btp599
Rp600
(dp601
bg551
tp602
Rp603
(dp604
btp605
Rp606
(dp607
bg56
g566
tp608
Rp609
(dp610
btp611
Rp612
(dp613
btp614
Rp615
(dp616
baa(lp617
g198
ag3
(g6
g301
g8
(g10
(g11
((I0
S'3L'
p618
I-2
I2
tp619
tp620
Rp621
(dp622
g17
I53
sbg310
g3
(g11
((I1
S'47ae147ae147bL'
p623
I-55
I51
tp624
tp625
Rp626
(dp627
g17
I53
sbg327
tp628
Rp629
(dp630
btp631
Rp632
(dp633
bg6
tp634
Rp635
(dp636
bg10
(g3
(g10
(g3
(g6
g339
tp637
Rp638
(dp639
bg3
(g11
((I0
S'47ae147ae147bL'
p640
I-55
I51
tp641
tp642
Rp643
(dp644
g17
I53
sbg162
g128
tp645
Rp646
(dp647
btp648
Rp649
(dp650
bg136
(g339
g137
(g310
g140
tp651
Rp652
(dp653
btp654
Rp655
(dp656
btp657
Rp658
(dp659
bg3
(g6
g10
(g11
((I0
S'3L'
p660
I-2
I2
tp661
tp662
Rp663
(dp664
g17
I53
sbg3
(g11
((I1
S'47ae147ae147bL'
p665
I-55
I51
tp666
tp667
Rp668
(dp669
g17
I53
sbg166
g121
tp670
Rp671
(dp672
bg370
tp673
Rp674
(dp675
bg136
(g370
g137
(g310
g140
tp676
Rp677
(dp678
btp679
Rp680
(dp681
btp682
Rp683
(dp684
btp685
Rp686
(dp687
bg189
(g632
tp688
Rp689
(dp690
btp691
Rp692
(dp693
bag3
(g6
g405
g635
g408
g10
(g3
(g632
g213
(g10
(g11
((I0
S'3L'
p694
I-2
I2
tp695
tp696
Rp697
(dp698
g17
I53
sbg310
g3
(g11
((I1
S'47ae147ae147bL'
p699
I-55
I51
tp700
tp701
Rp702
(dp703
g17
I53
sbg327
tp704
Rp705
(dp706
btp707
Rp708
(dp709
btp710
Rp711
(dp712
bg56
tp713
Rp714
(dp715
bg3
(g11
((I0
S'47ae147ae147bL'
p716
I-55
I51
tp717
tp718
Rp719
(dp720
g17
I53
sbg10
(g3
(g353
g459
tp721
Rp722
(dp723
bg3
(g10
(g3
(g468
g121
g128
tp724
Rp725
(dp726
bg3
(g477
g162
g166
tp727
Rp728
(dp729
btp730
Rp731
(dp732
bg674
tp733
Rp734
(dp735
btp736
Rp737
(dp738
bg689
g226
tp739
Rp740
(dp741
btp742
Rp743
(dp744
btp745
Rp746
(dp747
baaa(lp748
(lp749
g3
(g6
g8
(g8
(g9
(g10
(g11
((I1
S'10c152382d7365L'
p750
I-52
I53
tp751
tp752
Rp753
(dp754
g17
I53
sbg21
tp755
Rp756
(dp757
btp758
Rp759
(dp760
bg60
tp761
Rp762
(dp763
bg67
tp764
Rp765
(dp766
bg8
(g10
(g11
((I1
S'3L'
p767
I-2
I2
tp768
tp769
Rp770
(dp771
g17
I53
sbg79
g3
(g11
((I0
S'795810624dd2fL'
p772
I-54
I51
tp773
tp774
Rp775
(dp776
g17
I53
sbg92
tp777
Rp778
(dp779
btp780
Rp781
(dp782
bg6
tp783
Rp784
(dp785
bg10
(g3
(g10
(g3
(g6
g105
tp786
Rp787
(dp788
bg3
(g11
((I0
S'795810624dd2fL'
p789
I-54
I51
tp790
tp791
Rp792
(dp793
g17
I53
sbg121
g128
tp794
Rp795
(dp796
btp797
Rp798
(dp799
bg136
(g105
g137
(g79
g140
tp800
Rp801
(dp802
btp803
Rp804
(dp805
btp806
Rp807
(dp808
bg3
(g6
g10
(g11
((I1
S'3L'
p809
I-2
I2
tp810
tp811
Rp812
(dp813
g17
I53
sbg3
(g11
((I0
S'795810624dd2fL'
p814
I-54
I51
tp815
tp816
Rp817
(dp818
g17
I53
sbg162
g166
tp819
Rp820
(dp821
bg172
tp822
Rp823
(dp824
bg136
(g172
g137
(g79
g140
tp825
Rp826
(dp827
btp828
Rp829
(dp830
btp831
Rp832
(dp833
btp834
Rp835
(dp836
bg189
(g781
tp837
Rp838
(dp839
btp840
Rp841
(dp842
bag198
ag3
(g8
(g762
g202
tp843
Rp844
(dp845
bg784
g8
(g759
g208
tp846
Rp847
(dp848
bg10
(g3
(g781
g213
(g10
(g11
((I1
S'3L'
p849
I-2
I2
tp850
tp851
Rp852
(dp853
g17
I53
sbg79
g3
(g11
((I0
S'795810624dd2fL'
p854
I-54
I51
tp855
tp856
Rp857
(dp858
g17
I53
sbg92
tp859
Rp860
(dp861
btp862
Rp863
(dp864
btp865
Rp866
(dp867
bg115
(g756
tp868
Rp869
(dp870
btp871
Rp872
(dp873
bg3
(g11
((I0
S'795810624dd2fL'
p874
I-54
I51
tp875
tp876
Rp877
(dp878
g17
I53
sbg10
(g3
(g798
g10
(g3
(g136
(g125
g137
(g21
g140
tp879
Rp880
(dp881
btp882
Rp883
(dp884
bg166
g121
tp885
Rp886
(dp887
bg3
(g136
(g118
g137
(g21
g140
tp888
Rp889
(dp890
btp891
Rp892
(dp893
bg162
g128
tp894
Rp895
(dp896
btp897
Rp898
(dp899
btp900
Rp901
(dp902
bg3
(g6
g10
(g3
(g136
(g118
g137
(g21
g140
tp903
Rp904
(dp905
btp906
Rp907
(dp908
bg166
g121
tp909
Rp910
(dp911
bg3
(g6
g136
(g125
g137
(g21
g140
tp912
Rp913
(dp914
btp915
Rp916
(dp917
bg162
g128
tp918
Rp919
(dp920
btp921
Rp922
(dp923
bg823
tp924
Rp925
(dp926
btp927
Rp928
(dp929
bg759
g838
tp930
Rp931
(dp932
btp933
Rp934
(dp935
btp936
Rp937
(dp938
baa(lp939
g198
ag3
(g6
g8
(g8
(g869
g60
tp940
Rp941
(dp942
bg67
tp943
Rp944
(dp945
bg8
(g10
(g11
((I0
S'3L'
p946
I-2
I2
tp947
tp948
Rp949
(dp950
g17
I53
sbg3
(g6
g310
tp951
Rp952
(dp953
bg3
(g11
((I0
S'b851eb851eb85L'
p954
I-57
I52
tp955
tp956
Rp957
(dp958
g17
I53
sbg327
tp959
Rp960
(dp961
btp962
Rp963
(dp964
bg6
tp965
Rp966
(dp967
bg10
(g3
(g10
(g3
(g6
g339
tp968
Rp969
(dp970
bg3
(g11
((I0
S'b851eb851eb85L'
p971
I-57
I52
tp972
tp973
Rp974
(dp975
g17
I53
sbg162
g128
tp976
Rp977
(dp978
btp979
Rp980
(dp981
bg359
tp982
Rp983
(dp984
bg3
(g10
(g11
((I0
S'3L'
p985
I-2
I2
tp986
tp987
Rp988
(dp989
g17
I53
sbg3
(g6
g370
tp990
Rp991
(dp992
bg3
(g11
((I0
S'b851eb851eb85L'
p993
I-57
I52
tp994
tp995
Rp996
(dp997
g17
I53
sbg166
g121
tp998
Rp999
(dp1000
btp1001
Rp1002
(dp1003
bg390
tp1004
Rp1005
(dp1006
btp1007
Rp1008
(dp1009
bg189
(g963
tp1010
Rp1011
(dp1012
btp1013
Rp1014
(dp1015
bag3
(g6
g8
(g941
g202
tp1016
Rp1017
(dp1018
bg966
g8
(g869
g208
tp1019
Rp1020
(dp1021
bg10
(g3
(g963
g213
(g10
(g11
((I0
S'3L'
p1022
I-2
I2
tp1023
tp1024
Rp1025
(dp1026
g17
I53
sbg416
g3
(g11
((I0
S'b851eb851eb85L'
p1027
I-57
I52
tp1028
tp1029
Rp1030
(dp1031
g17
I53
sbg327
tp1032
Rp1033
(dp1034
btp1035
Rp1036
(dp1037
btp1038
Rp1039
(dp1040
bg759
tp1041
Rp1042
(dp1043
bg3
(g11
((I0
S'b851eb851eb85L'
p1044
I-57
I52
tp1045
tp1046
Rp1047
(dp1048
g17
I53
sbg10
(g3
(g980
g10
(g3
(g136
(g118
g137
(g21
g140
tp1049
Rp1050
(dp1051
btp1052
Rp1053
(dp1054
bg121
g128
tp1055
Rp1056
(dp1057
bg3
(g6
g136
(g125
g137
(g21
g140
tp1058
Rp1059
(dp1060
btp1061
Rp1062
(dp1063
bg162
g166
tp1064
Rp1065
(dp1066
btp1067
Rp1068
(dp1069
btp1070
Rp1071
(dp1072
bg3
(g6
g10
(g3
(g136
(g125
g137
(g21
g140
tp1073
Rp1074
(dp1075
btp1076
Rp1077
(dp1078
bg121
g128
tp1079
Rp1080
(dp1081
bg3
(g136
(g118
g137
(g21
g140
tp1082
Rp1083
(dp1084
btp1085
Rp1086
(dp1087
bg162
g166
tp1088
Rp1089
(dp1090
btp1091
Rp1092
(dp1093
bg1002
tp1094
Rp1095
(dp1096
btp1097
Rp1098
(dp1099
bg1011
g869
tp1100
Rp1101
(dp1102
btp1103
Rp1104
(dp1105
btp1106
Rp1107
(dp1108
baa(lp1109
g3
(g6
g765
g8
(g10
(g11
((I0
S'3L'
p1110
I-2
I2
tp1111
tp1112
Rp1113
(dp1114
g17
I53
sbg79
g3
(g11
((I0
S'795810624dd2fL'
p1115
I-54
I51
tp1116
tp1117
Rp1118
(dp1119
g17
I53
sbg92
tp1120
Rp1121
(dp1122
btp1123
Rp1124
(dp1125
bg6
tp1126
Rp1127
(dp1128
bg10
(g3
(g10
(g3
(g6
g105
tp1129
Rp1130
(dp1131
bg3
(g11
((I0
S'795810624dd2fL'
p1132
I-54
I51
tp1133
tp1134
Rp1135
(dp1136
g17
I53
sbg121
g128
tp1137
Rp1138
(dp1139
btp1140
Rp1141
(dp1142
bg804
tp1143
Rp1144
(dp1145
bg3
(g6
g10
(g11
((I0
S'3L'
p1146
I-2
I2
tp1147
tp1148
Rp1149
(dp1150
g17
I53
sbg3
(g11
((I0
S'795810624dd2fL'
p1151
I-54
I51
tp1152
tp1153
Rp1154
(dp1155
g17
I53
sbg162
g166
tp1156
Rp1157
(dp1158
bg172
tp1159
Rp1160
(dp1161
bg136
(g172
g137
(g79
g140
tp1162
Rp1163
(dp1164
btp1165
Rp1166
(dp1167
btp1168
Rp1169
(dp1170
btp1171
Rp1172
(dp1173
bg189
(g1124
tp1174
Rp1175
(dp1176
btp1177
Rp1178
(dp1179
bag198
ag3
(g844
g1127
g847
g10
(g3
(g1124
g213
(g10
(g11
((I0
S'3L'
p1180
I-2
I2
tp1181
tp1182
Rp1183
(dp1184
g17
I53
sbg79
g860
tp1185
Rp1186
(dp1187
btp1188
Rp1189
(dp1190
bg869
tp1191
Rp1192
(dp1193
bg3
(g11
((I0
S'795810624dd2fL'
p1194
I-54
I51
tp1195
tp1196
Rp1197
(dp1198
g17
I53
sbg10
(g3
(g798
g898
tp1199
Rp1200
(dp1201
bg3
(g6
g10
(g3
(g907
g166
g121
tp1202
Rp1203
(dp1204
bg3
(g6
g916
g162
g128
tp1205
Rp1206
(dp1207
btp1208
Rp1209
(dp1210
bg1160
tp1211
Rp1212
(dp1213
btp1214
Rp1215
(dp1216
bg759
g1175
tp1217
Rp1218
(dp1219
btp1220
Rp1221
(dp1222
btp1223
Rp1224
(dp1225
baa(lp1226
g198
ag3
(g6
g944
g8
(g10
(g11
((I0
S'3L'
p1227
I-2
I2
tp1228
tp1229
Rp1230
(dp1231
g17
I53
sbg310
g3
(g11
((I1
S'b851eb851eb85L'
p1232
I-57
I52
tp1233
tp1234
Rp1235
(dp1236
g17
I53
sbg327
tp1237
Rp1238
(dp1239
btp1240
Rp1241
(dp1242
bg6
tp1243
Rp1244
(dp1245
bg10
(g3
(g10
(g3
(g6
g339
tp1246
Rp1247
(dp1248
bg3
(g11
((I0
S'b851eb851eb85L'
p1249
I-57
I52
tp1250
tp1251
Rp1252
(dp1253
g17
I53
sbg162
g128
tp1254
Rp1255
(dp1256
btp1257
Rp1258
(dp1259
bg136
(g339
g137
(g310
g140
tp1260
Rp1261
(dp1262
btp1263
Rp1264
(dp1265
btp1266
Rp1267
(dp1268
bg3
(g6
g10
(g11
((I0
S'3L'
p1269
I-2
I2
tp1270
tp1271
Rp1272
(dp1273
g17
I53
sbg3
(g11
((I1
S'b851eb851eb85L'
p1274
I-57
I52
tp1275
tp1276
Rp1277
(dp1278
g17
I53
sbg166
g121
tp1279
Rp1280
(dp1281
bg370
tp1282
Rp1283
(dp1284
bg136
(g370
g137
(g310
g140
tp1285
Rp1286
(dp1287
btp1288
Rp1289
(dp1290
btp1291
Rp1292
(dp1293
btp1294
Rp1295
(dp1296
bg189
(g1241
tp1297
Rp1298
(dp1299
btp1300
Rp1301
(dp1302
bag3
(g6
g1017
g1244
g1020
g10
(g3
(g1241
g213
(g10
(g11
((I0
S'3L'
p1303
I-2
I2
tp1304
tp1305
Rp1306
(dp1307
g17
I53
sbg310
g3
(g11
((I1
S'b851eb851eb85L'
p1308
I-57
I52
tp1309
tp1310
Rp1311
(dp1312
g17
I53
sbg327
tp1313
Rp1314
(dp1315
btp1316
Rp1317
(dp1318
btp1319
Rp1320
(dp1321
bg759
tp1322
Rp1323
(dp1324
bg3
(g11
((I0
S'b851eb851eb85L'
p1325
I-57
I52
tp1326
tp1327
Rp1328
(dp1329
g17
I53
sbg10
(g3
(g980
g1068
tp1330
Rp1331
(dp1332
bg3
(g10
(g3
(g1077
g121
g128
tp1333
Rp1334
(dp1335
bg3
(g1086
g162
g166
tp1336
Rp1337
(dp1338
btp1339
Rp1340
(dp1341
bg1283
tp1342
Rp1343
(dp1344
btp1345
Rp1346
(dp1347
bg1298
g869
tp1348
Rp1349
(dp1350
btp1351
Rp1352
(dp1353
btp1354
Rp1355
(dp1356
baaa(lp1357
(lp1358
g3
(g6
g8
(g8
(g92
g60
tp1359
Rp1360
(dp1361
bg67
tp1362
Rp1363
(dp1364
bg8
(g10
(g11
((I1
S'3L'
p1365
I-2
I2
tp1366
tp1367
Rp1368
(dp1369
g17
I53
sbg79
g3
(g11
((I0
S'4189374bc6a7fL'
p1370
I-53
I51
tp1371
tp1372
Rp1373
(dp1374
g17
I53
sbg92
tp1375
Rp1376
(dp1377
btp1378
Rp1379
(dp1380
bg6
tp1381
Rp1382
(dp1383
bg10
(g3
(g10
(g3
(g6
g105
tp1384
Rp1385
(dp1386
bg3
(g11
((I0
S'4189374bc6a7fL'
p1387
I-53
I51
tp1388
tp1389
Rp1390
(dp1391
g17
I53
sbg121
g128
tp1392
Rp1393
(dp1394
btp1395
Rp1396
(dp1397
bg136
(g105
g137
(g79
g140
tp1398
Rp1399
(dp1400
btp1401
Rp1402
(dp1403
btp1404
Rp1405
(dp1406
bg3
(g6
g10
(g11
((I1
S'3L'
p1407
I-2
I2
tp1408
tp1409
Rp1410
(dp1411
g17
I53
sbg3
(g11
((I0
S'4189374bc6a7fL'
p1412
I-53
I51
tp1413
tp1414
Rp1415
(dp1416
g17
I53
sbg162
g166
tp1417
Rp1418
(dp1419
bg172
tp1420
Rp1421
(dp1422
bg136
(g172
g137
(g79
g140
tp1423
Rp1424
(dp1425
btp1426
Rp1427
(dp1428
btp1429
Rp1430
(dp1431
btp1432
Rp1433
(dp1434
bg189
(g1379
tp1435
Rp1436
(dp1437
btp1438
Rp1439
(dp1440
bag198
ag3
(g8
(g1360
g202
tp1441
Rp1442
(dp1443
bg1382
g8
(g92
g208
tp1444
Rp1445
(dp1446
bg10
(g3
(g1379
g213
(g10
(g11
((I1
S'3L'
p1447
I-2
I2
tp1448
tp1449
Rp1450
(dp1451
g17
I53
sbg79
g3
(g11
((I0
S'4189374bc6a7fL'
p1452
I-53
I51
tp1453
tp1454
Rp1455
(dp1456
g17
I53
sbg92
tp1457
Rp1458
(dp1459
btp1460
Rp1461
(dp1462
btp1463
Rp1464
(dp1465
bg327
tp1466
Rp1467
(dp1468
bg3
(g11
((I0
S'4189374bc6a7fL'
p1469
I-53
I51
tp1470
tp1471
Rp1472
(dp1473
g17
I53
sbg10
(g3
(g1396
g10
(g3
(g136
(g125
g137
(g21
g140
tp1474
Rp1475
(dp1476
btp1477
Rp1478
(dp1479
bg166
g121
tp1480
Rp1481
(dp1482
bg3
(g136
(g118
g137
(g21
g140
tp1483
Rp1484
(dp1485
btp1486
Rp1487
(dp1488
bg162
g128
tp1489
Rp1490
(dp1491
btp1492
Rp1493
(dp1494
btp1495
Rp1496
(dp1497
bg3
(g6
g10
(g3
(g136
(g118
g137
(g21
g140
tp1498
Rp1499
(dp1500
btp1501
Rp1502
(dp1503
bg166
g121
tp1504
Rp1505
(dp1506
bg3
(g6
g136
(g125
g137
(g21
g140
tp1507
Rp1508
(dp1509
btp1510
Rp1511
(dp1512
bg162
g128
tp1513
Rp1514
(dp1515
btp1516
Rp1517
(dp1518
bg1421
tp1519
Rp1520
(dp1521
btp1522
Rp1523
(dp1524
bg92
g1436
tp1525
Rp1526
(dp1527
btp1528
Rp1529
(dp1530
btp1531
Rp1532
(dp1533
baa(lp1534
g198
ag3
(g8
(g8
(g327
g60
tp1535
Rp1536
(dp1537
bg67
tp1538
Rp1539
(dp1540
bg8
(g10
(g11
((I1
S'3L'
p1541
I-2
I2
tp1542
tp1543
Rp1544
(dp1545
g17
I53
sbg310
tp1546
Rp1547
(dp1548
bg6
tp1549
Rp1550
(dp1551
bg10
(g3
(g10
(g11
((I1
S'3L'
p1552
I-2
I2
tp1553
tp1554
Rp1555
(dp1556
g17
I53
sbg370
tp1557
Rp1558
(dp1559
bg136
(g370
g137
(g310
g140
tp1560
Rp1561
(dp1562
btp1563
Rp1564
(dp1565
btp1566
Rp1567
(dp1568
bg3
(g136
(g339
g137
(g310
g140
tp1569
Rp1570
(dp1571
btp1572
Rp1573
(dp1574
bg339
tp1575
Rp1576
(dp1577
btp1578
Rp1579
(dp1580
bg189
(g1547
tp1581
Rp1582
(dp1583
btp1584
Rp1585
(dp1586
bag3
(g6
g1539
g8
(csympy.functions.elementary.trigonometric
tan
p1587
(g21
tp1588
Rp1589
(dp1590
bg6
tp1591
Rp1592
(dp1593
bg213
(g10
(g11
((I1
S'3L'
p1594
I-2
I2
tp1595
tp1596
Rp1597
(dp1598
g17
I53
sbg310
tp1599
Rp1600
(dp1601
btp1602
Rp1603
(dp1604
btp1605
Rp1606
(dp1607
baa(lp1608
g3
(g6
g1363
g8
(g10
(g11
((I0
S'3L'
p1609
I-2
I2
tp1610
tp1611
Rp1612
(dp1613
g17
I53
sbg79
g1376
tp1614
Rp1615
(dp1616
bg6
tp1617
Rp1618
(dp1619
bg10
(g3
(g10
(g3
(g6
g105
tp1620
Rp1621
(dp1622
bg3
(g11
((I0
S'4189374bc6a7fL'
p1623
I-53
I51
tp1624
tp1625
Rp1626
(dp1627
g17
I53
sbg121
g128
tp1628
Rp1629
(dp1630
btp1631
Rp1632
(dp1633
bg1402
tp1634
Rp1635
(dp1636
bg3
(g6
g10
(g11
((I0
S'3L'
p1637
I-2
I2
tp1638
tp1639
Rp1640
(dp1641
g17
I53
sbg3
(g11
((I0
S'4189374bc6a7fL'
p1642
I-53
I51
tp1643
tp1644
Rp1645
(dp1646
g17
I53
sbg162
g166
tp1647
Rp1648
(dp1649
bg172
tp1650
Rp1651
(dp1652
bg136
(g172
g137
(g79
g140
tp1653
Rp1654
(dp1655
btp1656
Rp1657
(dp1658
btp1659
Rp1660
(dp1661
btp1662
Rp1663
(dp1664
bg189
(g1615
tp1665
Rp1666
(dp1667
btp1668
Rp1669
(dp1670
bag198
ag3
(g1442
g1618
g1445
g10
(g3
(g1615
g213
(g10
(g11
((I0
S'3L'
p1671
I-2
I2
tp1672
tp1673
Rp1674
(dp1675
g17
I53
sbg79
g1458
tp1676
Rp1677
(dp1678
btp1679
Rp1680
(dp1681
bg327
tp1682
Rp1683
(dp1684
bg3
(g11
((I0
S'4189374bc6a7fL'
p1685
I-53
I51
tp1686
tp1687
Rp1688
(dp1689
g17
I53
sbg10
(g3
(g1396
g1493
tp1690
Rp1691
(dp1692
bg3
(g6
g10
(g3
(g1502
g166
g121
tp1693
Rp1694
(dp1695
bg3
(g6
g1511
g162
g128
tp1696
Rp1697
(dp1698
btp1699
Rp1700
(dp1701
bg1651
tp1702
Rp1703
(dp1704
btp1705
Rp1706
(dp1707
bg92
g1666
tp1708
Rp1709
(dp1710
btp1711
Rp1712
(dp1713
btp1714
Rp1715
(dp1716
baa(lp1717
g198
ag3
(g1539
g8
(g10
(g11
((I0
S'3L'
p1718
I-2
I2
tp1719
tp1720
Rp1721
(dp1722
g17
I53
sbg310
tp1723
Rp1724
(dp1725
bg6
tp1726
Rp1727
(dp1728
bg10
(g3
(g10
(g11
((I0
S'3L'
p1729
I-2
I2
tp1730
tp1731
Rp1732
(dp1733
g17
I53
sbg370
tp1734
Rp1735
(dp1736
bg136
(g370
g137
(g310
g140
tp1737
Rp1738
(dp1739
btp1740
Rp1741
(dp1742
btp1743
Rp1744
(dp1745
bg3
(g136
(g339
g137
(g310
g140
tp1746
Rp1747
(dp1748
btp1749
Rp1750
(dp1751
bg339
tp1752
Rp1753
(dp1754
btp1755
Rp1756
(dp1757
bg189
(g1724
tp1758
Rp1759
(dp1760
btp1761
Rp1762
(dp1763
bag3
(g6
g1539
g1592
g213
(g1724
tp1764
Rp1765
(dp1766
btp1767
Rp1768
(dp1769
baaa(lp1770
(lp1771
g3
(g6
g8
(g8
(g9
(g10
(g11
((I0
S'10c152382d7365L'
p1772
I-52
I53
tp1773
tp1774
Rp1775
(dp1776
g17
I53
sbg21
tp1777
Rp1778
(dp1779
btp1780
Rp1781
(dp1782
bg60
tp1783
Rp1784
(dp1785
bg67
tp1786
Rp1787
(dp1788
bg8
(g10
(g11
((I1
S'3L'
p1789
I-2
I2
tp1790
tp1791
Rp1792
(dp1793
g17
I53
sbg79
g3
(g11
((I0
S'795810624dd2fL'
p1794
I-54
I51
tp1795
tp1796
Rp1797
(dp1798
g17
I53
sbg92
tp1799
Rp1800
(dp1801
btp1802
Rp1803
(dp1804
bg6
tp1805
Rp1806
(dp1807
bg10
(g3
(g10
(g3
(g6
g105
tp1808
Rp1809
(dp1810
bg3
(g11
((I0
S'795810624dd2fL'
p1811
I-54
I51
tp1812
tp1813
Rp1814
(dp1815
g17
I53
sbg121
g128
tp1816
Rp1817
(dp1818
btp1819
Rp1820
(dp1821
bg804
tp1822
Rp1823
(dp1824
bg3
(g6
g10
(g11
((I1
S'3L'
p1825
I-2
I2
tp1826
tp1827
Rp1828
(dp1829
g17
I53
sbg3
(g11
((I0
S'795810624dd2fL'
p1830
I-54
I51
tp1831
tp1832
Rp1833
(dp1834
g17
I53
sbg162
g166
tp1835
Rp1836
(dp1837
bg172
tp1838
Rp1839
(dp1840
bg829
tp1841
Rp1842
(dp1843
btp1844
Rp1845
(dp1846
bg838
tp1847
Rp1848
(dp1849
bag198
ag3
(g8
(g1784
g202
tp1850
Rp1851
(dp1852
bg1806
g8
(g1781
g208
tp1853
Rp1854
(dp1855
bg10
(g3
(g1803
g866
g115
(g10
(g11
((I0
S'10c152382d7365L'
p1856
I-52
I53
tp1857
tp1858
Rp1859
(dp1860
g17
I53
sbg21
tp1861
Rp1862
(dp1863
btp1864
Rp1865
(dp1866
btp1867
Rp1868
(dp1869
bg3
(g11
((I0
S'795810624dd2fL'
p1870
I-54
I51
tp1871
tp1872
Rp1873
(dp1874
g17
I53
sbg10
(g3
(g1820
g10
(g3
(g883
g166
g121
tp1875
Rp1876
(dp1877
bg3
(g892
g162
g128
tp1878
Rp1879
(dp1880
btp1881
Rp1882
(dp1883
btp1884
Rp1885
(dp1886
bg3
(g6
g10
(g3
(g136
(g118
g137
(g21
g140
tp1887
Rp1888
(dp1889
btp1890
Rp1891
(dp1892
bg166
g121
tp1893
Rp1894
(dp1895
bg3
(g6
g136
(g125
g137
(g21
g140
tp1896
Rp1897
(dp1898
btp1899
Rp1900
(dp1901
bg162
g128
tp1902
Rp1903
(dp1904
btp1905
Rp1906
(dp1907
bg1839
tp1908
Rp1909
(dp1910
btp1911
Rp1912
(dp1913
bg9
(g1862
tp1914
Rp1915
(dp1916
bg838
tp1917
Rp1918
(dp1919
btp1920
Rp1921
(dp1922
btp1923
Rp1924
(dp1925
baa(lp1926
g198
ag3
(g8
(g8
(g115
(g1778
tp1927
Rp1928
(dp1929
bg60
tp1930
Rp1931
(dp1932
bg67
tp1933
Rp1934
(dp1935
bg8
(g10
(g11
((I1
S'3L'
p1936
I-2
I2
tp1937
tp1938
Rp1939
(dp1940
g17
I53
sbg310
g3
(g11
((I0
S'b851eb851eb85L'
p1941
I-57
I52
tp1942
tp1943
Rp1944
(dp1945
g17
I53
sbg327
tp1946
Rp1947
(dp1948
btp1949
Rp1950
(dp1951
bg6
tp1952
Rp1953
(dp1954
bg10
(g3
(g10
(g3
(g11
((I0
S'b851eb851eb85L'
p1955
I-57
I52
tp1956
tp1957
Rp1958
(dp1959
g17
I53
sbg162
g128
tp1960
Rp1961
(dp1962
bg339
tp1963
Rp1964
(dp1965
bg136
(g339
g137
(g310
g140
tp1966
Rp1967
(dp1968
btp1969
Rp1970
(dp1971
btp1972
Rp1973
(dp1974
bg3
(g10
(g11
((I1
S'3L'
p1975
I-2
I2
tp1976
tp1977
Rp1978
(dp1979
g17
I53
sbg3
(g11
((I0
S'b851eb851eb85L'
p1980
I-57
I52
tp1981
tp1982
Rp1983
(dp1984
g17
I53
sbg166
g121
tp1985
Rp1986
(dp1987
bg370
tp1988
Rp1989
(dp1990
bg136
(g370
g137
(g310
g140
tp1991
Rp1992
(dp1993
btp1994
Rp1995
(dp1996
btp1997
Rp1998
(dp1999
btp2000
Rp2001
(dp2002
bg189
(g1950
tp2003
Rp2004
(dp2005
btp2006
Rp2007
(dp2008
bag3
(g6
g8
(g1931
g202
tp2009
Rp2010
(dp2011
bg1953
g8
(g1865
g208
tp2012
Rp2013
(dp2014
bg10
(g3
(g1950
g213
(g10
(g11
((I1
S'3L'
p2015
I-2
I2
tp2016
tp2017
Rp2018
(dp2019
g17
I53
sbg310
g3
(g11
((I0
S'b851eb851eb85L'
p2020
I-57
I52
tp2021
tp2022
Rp2023
(dp2024
g17
I53
sbg327
tp2025
Rp2026
(dp2027
btp2028
Rp2029
(dp2030
btp2031
Rp2032
(dp2033
bg1915
tp2034
Rp2035
(dp2036
bg3
(g11
((I0
S'b851eb851eb85L'
p2037
I-57
I52
tp2038
tp2039
Rp2040
(dp2041
g17
I53
sbg10
(g3
(g10
(g3
(g11
((I0
S'b851eb851eb85L'
p2042
I-57
I52
tp2043
tp2044
Rp2045
(dp2046
g17
I53
sbg162
g128
tp2047
Rp2048
(dp2049
bg339
tp2050
Rp2051
(dp2052
bg10
(g3
(g1053
g121
g128
tp2053
Rp2054
(dp2055
bg3
(g6
g1062
g162
g166
tp2056
Rp2057
(dp2058
btp2059
Rp2060
(dp2061
btp2062
Rp2063
(dp2064
bg3
(g6
g10
(g3
(g136
(g125
g137
(g21
g140
tp2065
Rp2066
(dp2067
btp2068
Rp2069
(dp2070
bg121
g128
tp2071
Rp2072
(dp2073
bg3
(g136
(g118
g137
(g21
g140
tp2074
Rp2075
(dp2076
btp2077
Rp2078
(dp2079
bg162
g166
tp2080
Rp2081
(dp2082
btp2083
Rp2084
(dp2085
bg10
(g11
((I1
S'3L'
p2086
I-2
I2
tp2087
tp2088
Rp2089
(dp2090
g17
I53
sbg3
(g11
((I0
S'b851eb851eb85L'
p2091
I-57
I52
tp2092
tp2093
Rp2094
(dp2095
g17
I53
sbg166
g121
tp2096
Rp2097
(dp2098
bg370
tp2099
Rp2100
(dp2101
btp2102
Rp2103
(dp2104
btp2105
Rp2106
(dp2107
bg2004
g1865
tp2108
Rp2109
(dp2110
btp2111
Rp2112
(dp2113
btp2114
Rp2115
(dp2116
baa(lp2117
g3
(g6
g1787
g8
(g10
(g11
((I0
S'3L'
p2118
I-2
I2
tp2119
tp2120
Rp2121
(dp2122
g17
I53
sbg79
g3
(g11
((I0
S'795810624dd2fL'
p2123
I-54
I51
tp2124
tp2125
Rp2126
(dp2127
g17
I53
sbg92
tp2128
Rp2129
(dp2130
btp2131
Rp2132
(dp2133
bg6
tp2134
Rp2135
(dp2136
bg10
(g3
(g10
(g3
(g6
g105
tp2137
Rp2138
(dp2139
bg3
(g11
((I0
S'795810624dd2fL'
p2140
I-54
I51
tp2141
tp2142
Rp2143
(dp2144
g17
I53
sbg121
g128
tp2145
Rp2146
(dp2147
btp2148
Rp2149
(dp2150
bg804
tp2151
Rp2152
(dp2153
bg3
(g6
g10
(g11
((I0
S'3L'
p2154
I-2
I2
tp2155
tp2156
Rp2157
(dp2158
g17
I53
sbg3
(g11
((I0
S'795810624dd2fL'
p2159
I-54
I51
tp2160
tp2161
Rp2162
(dp2163
g17
I53
sbg162
g166
tp2164
Rp2165
(dp2166
bg172
tp2167
Rp2168
(dp2169
bg1166
tp2170
Rp2171
(dp2172
btp2173
Rp2174
(dp2175
bg1175
tp2176
Rp2177
(dp2178
bag198
ag3
(g1851
g2135
g1854
g10
(g3
(g2132
g1189
g1865
tp2179
Rp2180
(dp2181
bg3
(g11
((I0
S'795810624dd2fL'
p2182
I-54
I51
tp2183
tp2184
Rp2185
(dp2186
g17
I53
sbg10
(g3
(g1820
g1882
tp2187
Rp2188
(dp2189
bg3
(g6
g10
(g3
(g1891
g166
g121
tp2190
Rp2191
(dp2192
bg3
(g6
g1900
g162
g128
tp2193
Rp2194
(dp2195
btp2196
Rp2197
(dp2198
bg2168
tp2199
Rp2200
(dp2201
btp2202
Rp2203
(dp2204
bg1915
g1175
tp2205
Rp2206
(dp2207
btp2208
Rp2209
(dp2210
btp2211
Rp2212
(dp2213
baa(lp2214
g198
ag3
(g1934
g8
(g10
(g11
((I0
S'3L'
p2215
I-2
I2
tp2216
tp2217
Rp2218
(dp2219
g17
I53
sbg310
g3
(g11
((I0
S'b851eb851eb85L'
p2220
I-57
I52
tp2221
tp2222
Rp2223
(dp2224
g17
I53
sbg327
tp2225
Rp2226
(dp2227
btp2228
Rp2229
(dp2230
bg6
tp2231
Rp2232
(dp2233
bg10
(g3
(g10
(g3
(g11
((I0
S'b851eb851eb85L'
p2234
I-57
I52
tp2235
tp2236
Rp2237
(dp2238
g17
I53
sbg162
g128
tp2239
Rp2240
(dp2241
bg339
tp2242
Rp2243
(dp2244
bg1970
tp2245
Rp2246
(dp2247
bg3
(g10
(g11
((I0
S'3L'
p2248
I-2
I2
tp2249
tp2250
Rp2251
(dp2252
g17
I53
sbg3
(g11
((I0
S'b851eb851eb85L'
p2253
I-57
I52
tp2254
tp2255
Rp2256
(dp2257
g17
I53
sbg166
g121
tp2258
Rp2259
(dp2260
bg370
tp2261
Rp2262
(dp2263
bg136
(g370
g137
(g310
g140
tp2264
Rp2265
(dp2266
btp2267
Rp2268
(dp2269
btp2270
Rp2271
(dp2272
btp2273
Rp2274
(dp2275
bg189
(g2229
tp2276
Rp2277
(dp2278
btp2279
Rp2280
(dp2281
bag3
(g6
g2010
g2232
g2013
g10
(g3
(g2229
g213
(g10
(g11
((I0
S'3L'
p2282
I-2
I2
tp2283
tp2284
Rp2285
(dp2286
g17
I53
sbg310
g2026
tp2287
Rp2288
(dp2289
btp2290
Rp2291
(dp2292
bg1915
tp2293
Rp2294
(dp2295
bg3
(g11
((I0
S'b851eb851eb85L'
p2296
I-57
I52
tp2297
tp2298
Rp2299
(dp2300
g17
I53
sbg10
(g3
(g2051
g2060
tp2301
Rp2302
(dp2303
bg3
(g6
g10
(g3
(g2069
g121
g128
tp2304
Rp2305
(dp2306
bg3
(g2078
g162
g166
tp2307
Rp2308
(dp2309
btp2310
Rp2311
(dp2312
bg10
(g11
((I0
S'3L'
p2313
I-2
I2
tp2314
tp2315
Rp2316
(dp2317
g17
I53
sbg3
(g11
((I0
S'b851eb851eb85L'
p2318
I-57
I52
tp2319
tp2320
Rp2321
(dp2322
g17
I53
sbg166
g121
tp2323
Rp2324
(dp2325
bg370
tp2326
Rp2327
(dp2328
btp2329
Rp2330
(dp2331
btp2332
Rp2333
(dp2334
bg2277
g1865
tp2335
Rp2336
(dp2337
btp2338
Rp2339
(dp2340
btp2341
Rp2342
(dp2343
baaa(lp2344
(lp2345
g3
(g6
g8
(g8
(g9
(g10
(g11
((I0
S'3243f6a8885a3L'
p2346
I-49
I50
tp2347
tp2348
Rp2349
(dp2350
g17
I53
sbg21
tp2351
Rp2352
(dp2353
btp2354
Rp2355
(dp2356
bg60
tp2357
Rp2358
(dp2359
bg67
tp2360
Rp2361
(dp2362
bg8
(g10
(g11
((I1
S'3L'
p2363
I-2
I2
tp2364
tp2365
Rp2366
(dp2367
g17
I53
sbg79
g3
(g11
((I0
S'c49ba5e353f7dL'
p2368
I-58
I52
tp2369
tp2370
Rp2371
(dp2372
g17
I53
sbg92
tp2373
Rp2374
(dp2375
btp2376
Rp2377
(dp2378
bg6
tp2379
Rp2380
(dp2381
bg10
(g3
(g10
(g3
(g6
g105
tp2382
Rp2383
(dp2384
bg3
(g11
((I0
S'c49ba5e353f7dL'
p2385
I-58
I52
tp2386
tp2387
Rp2388
(dp2389
g17
I53
sbg121
g128
tp2390
Rp2391
(dp2392
btp2393
Rp2394
(dp2395
bg146
tp2396
Rp2397
(dp2398
bg3
(g6
g10
(g11
((I1
S'3L'
p2399
I-2
I2
tp2400
tp2401
Rp2402
(dp2403
g17
I53
sbg3
(g11
((I0
S'c49ba5e353f7dL'
p2404
I-58
I52
tp2405
tp2406
Rp2407
(dp2408
g17
I53
sbg162
g166
tp2409
Rp2410
(dp2411
bg172
tp2412
Rp2413
(dp2414
bg181
tp2415
Rp2416
(dp2417
btp2418
Rp2419
(dp2420
bg189
(g2377
tp2421
Rp2422
(dp2423
btp2424
Rp2425
(dp2426
bag198
ag3
(g8
(g2358
g202
tp2427
Rp2428
(dp2429
bg2380
g8
(g2355
g208
tp2430
Rp2431
(dp2432
bg10
(g3
(g2377
g223
g115
(g10
(g11
((I0
S'3243f6a8885a3L'
p2433
I-49
I50
tp2434
tp2435
Rp2436
(dp2437
g17
I53
sbg21
tp2438
Rp2439
(dp2440
btp2441
Rp2442
(dp2443
btp2444
Rp2445
(dp2446
bg3
(g11
((I0
S'c49ba5e353f7dL'
p2447
I-58
I52
tp2448
tp2449
Rp2450
(dp2451
g17
I53
sbg10
(g3
(g2394
g10
(g3
(g240
g166
g121
tp2452
Rp2453
(dp2454
bg3
(g249
g162
g128
tp2455
Rp2456
(dp2457
btp2458
Rp2459
(dp2460
btp2461
Rp2462
(dp2463
bg3
(g6
g10
(g3
(g136
(g118
g137
(g21
g140
tp2464
Rp2465
(dp2466
btp2467
Rp2468
(dp2469
bg166
g121
tp2470
Rp2471
(dp2472
bg3
(g6
g136
(g125
g137
(g21
g140
tp2473
Rp2474
(dp2475
btp2476
Rp2477
(dp2478
bg162
g128
tp2479
Rp2480
(dp2481
btp2482
Rp2483
(dp2484
bg2413
tp2485
Rp2486
(dp2487
btp2488
Rp2489
(dp2490
bg9
(g2439
tp2491
Rp2492
(dp2493
bg2422
tp2494
Rp2495
(dp2496
btp2497
Rp2498
(dp2499
btp2500
Rp2501
(dp2502
baa(lp2503
g198
ag3
(g8
(g8
(g115
(g2352
tp2504
Rp2505
(dp2506
bg60
tp2507
Rp2508
(dp2509
bg67
tp2510
Rp2511
(dp2512
bg8
(g10
(g11
((I1
S'3L'
p2513
I-2
I2
tp2514
tp2515
Rp2516
(dp2517
g17
I53
sbg310
g3
(g11
((I0
S'47ae147ae147bL'
p2518
I-55
I51
tp2519
tp2520
Rp2521
(dp2522
g17
I53
sbg327
tp2523
Rp2524
(dp2525
btp2526
Rp2527
(dp2528
bg6
tp2529
Rp2530
(dp2531
bg10
(g3
(g10
(g3
(g11
((I0
S'47ae147ae147bL'
p2532
I-55
I51
tp2533
tp2534
Rp2535
(dp2536
g17
I53
sbg162
g128
tp2537
Rp2538
(dp2539
bg339
tp2540
Rp2541
(dp2542
bg136
(g339
g137
(g310
g140
tp2543
Rp2544
(dp2545
btp2546
Rp2547
(dp2548
btp2549
Rp2550
(dp2551
bg3
(g10
(g11
((I1
S'3L'
p2552
I-2
I2
tp2553
tp2554
Rp2555
(dp2556
g17
I53
sbg3
(g11
((I0
S'47ae147ae147bL'
p2557
I-55
I51
tp2558
tp2559
Rp2560
(dp2561
g17
I53
sbg166
g121
tp2562
Rp2563
(dp2564
bg370
tp2565
Rp2566
(dp2567
bg136
(g370
g137
(g310
g140
tp2568
Rp2569
(dp2570
btp2571
Rp2572
(dp2573
btp2574
Rp2575
(dp2576
btp2577
Rp2578
(dp2579
bg189
(g2527
tp2580
Rp2581
(dp2582
btp2583
Rp2584
(dp2585
bag3
(g6
g8
(g2508
g202
tp2586
Rp2587
(dp2588
bg2530
g8
(g2442
g208
tp2589
Rp2590
(dp2591
bg10
(g3
(g2527
g213
(g10
(g11
((I1
S'3L'
p2592
I-2
I2
tp2593
tp2594
Rp2595
(dp2596
g17
I53
sbg310
g3
(g11
((I0
S'47ae147ae147bL'
p2597
I-55
I51
tp2598
tp2599
Rp2600
(dp2601
g17
I53
sbg327
tp2602
Rp2603
(dp2604
btp2605
Rp2606
(dp2607
btp2608
Rp2609
(dp2610
bg2492
tp2611
Rp2612
(dp2613
bg3
(g11
((I0
S'47ae147ae147bL'
p2614
I-55
I51
tp2615
tp2616
Rp2617
(dp2618
g17
I53
sbg10
(g3
(g10
(g3
(g11
((I0
S'47ae147ae147bL'
p2619
I-55
I51
tp2620
tp2621
Rp2622
(dp2623
g17
I53
sbg162
g128
tp2624
Rp2625
(dp2626
bg339
tp2627
Rp2628
(dp2629
bg10
(g3
(g444
g121
g128
tp2630
Rp2631
(dp2632
bg3
(g6
g453
g162
g166
tp2633
Rp2634
(dp2635
btp2636
Rp2637
(dp2638
btp2639
Rp2640
(dp2641
bg3
(g6
g10
(g3
(g136
(g125
g137
(g21
g140
tp2642
Rp2643
(dp2644
btp2645
Rp2646
(dp2647
bg121
g128
tp2648
Rp2649
(dp2650
bg3
(g136
(g118
g137
(g21
g140
tp2651
Rp2652
(dp2653
btp2654
Rp2655
(dp2656
bg162
g166
tp2657
Rp2658
(dp2659
btp2660
Rp2661
(dp2662
bg10
(g11
((I1
S'3L'
p2663
I-2
I2
tp2664
tp2665
Rp2666
(dp2667
g17
I53
sbg3
(g11
((I0
S'47ae147ae147bL'
p2668
I-55
I51
tp2669
tp2670
Rp2671
(dp2672
g17
I53
sbg166
g121
tp2673
Rp2674
(dp2675
bg370
tp2676
Rp2677
(dp2678
btp2679
Rp2680
(dp2681
btp2682
Rp2683
(dp2684
bg2581
g2442
tp2685
Rp2686
(dp2687
btp2688
Rp2689
(dp2690
btp2691
Rp2692
(dp2693
baa(lp2694
g3
(g6
g2361
g8
(g10
(g11
((I0
S'3L'
p2695
I-2
I2
tp2696
tp2697
Rp2698
(dp2699
g17
I53
sbg79
g3
(g11
((I0
S'c49ba5e353f7dL'
p2700
I-58
I52
tp2701
tp2702
Rp2703
(dp2704
g17
I53
sbg92
tp2705
Rp2706
(dp2707
btp2708
Rp2709
(dp2710
bg6
tp2711
Rp2712
(dp2713
bg10
(g3
(g10
(g3
(g6
g105
tp2714
Rp2715
(dp2716
bg3
(g11
((I0
S'c49ba5e353f7dL'
p2717
I-58
I52
tp2718
tp2719
Rp2720
(dp2721
g17
I53
sbg121
g128
tp2722
Rp2723
(dp2724
btp2725
Rp2726
(dp2727
bg146
tp2728
Rp2729
(dp2730
bg3
(g6
g10
(g11
((I0
S'3L'
p2731
I-2
I2
tp2732
tp2733
Rp2734
(dp2735
g17
I53
sbg3
(g11
((I0
S'c49ba5e353f7dL'
p2736
I-58
I52
tp2737
tp2738
Rp2739
(dp2740
g17
I53
sbg162
g166
tp2741
Rp2742
(dp2743
bg172
tp2744
Rp2745
(dp2746
bg557
tp2747
Rp2748
(dp2749
btp2750
Rp2751
(dp2752
bg189
(g2709
tp2753
Rp2754
(dp2755
btp2756
Rp2757
(dp2758
bag198
ag3
(g2428
g2712
g2431
g10
(g3
(g2709
g580
g2442
tp2759
Rp2760
(dp2761
bg3
(g11
((I0
S'c49ba5e353f7dL'
p2762
I-58
I52
tp2763
tp2764
Rp2765
(dp2766
g17
I53
sbg10
(g3
(g2394
g2459
tp2767
Rp2768
(dp2769
bg3
(g6
g10
(g3
(g2468
g166
g121
tp2770
Rp2771
(dp2772
bg3
(g6
g2477
g162
g128
tp2773
Rp2774
(dp2775
btp2776
Rp2777
(dp2778
bg2745
tp2779
Rp2780
(dp2781
btp2782
Rp2783
(dp2784
bg2492
g2754
tp2785
Rp2786
(dp2787
btp2788
Rp2789
(dp2790
btp2791
Rp2792
(dp2793
baa(lp2794
g198
ag3
(g2511
g8
(g10
(g11
((I0
S'3L'
p2795
I-2
I2
tp2796
tp2797
Rp2798
(dp2799
g17
I53
sbg310
g3
(g11
((I0
S'47ae147ae147bL'
p2800
I-55
I51
tp2801
tp2802
Rp2803
(dp2804
g17
I53
sbg327
tp2805
Rp2806
(dp2807
btp2808
Rp2809
(dp2810
bg6
tp2811
Rp2812
(dp2813
bg10
(g3
(g10
(g3
(g11
((I0
S'47ae147ae147bL'
p2814
I-55
I51
tp2815
tp2816
Rp2817
(dp2818
g17
I53
sbg162
g128
tp2819
Rp2820
(dp2821
bg339
tp2822
Rp2823
(dp2824
bg2547
tp2825
Rp2826
(dp2827
bg3
(g10
(g11
((I0
S'3L'
p2828
I-2
I2
tp2829
tp2830
Rp2831
(dp2832
g17
I53
sbg3
(g11
((I0
S'47ae147ae147bL'
p2833
I-55
I51
tp2834
tp2835
Rp2836
(dp2837
g17
I53
sbg166
g121
tp2838
Rp2839
(dp2840
bg370
tp2841
Rp2842
(dp2843
bg136
(g370
g137
(g310
g140
tp2844
Rp2845
(dp2846
btp2847
Rp2848
(dp2849
btp2850
Rp2851
(dp2852
btp2853
Rp2854
(dp2855
bg189
(g2809
tp2856
Rp2857
(dp2858
btp2859
Rp2860
(dp2861
bag3
(g6
g2587
g2812
g2590
g10
(g3
(g2809
g213
(g10
(g11
((I0
S'3L'
p2862
I-2
I2
tp2863
tp2864
Rp2865
(dp2866
g17
I53
sbg310
g2603
tp2867
Rp2868
(dp2869
btp2870
Rp2871
(dp2872
bg2492
tp2873
Rp2874
(dp2875
bg3
(g11
((I0
S'47ae147ae147bL'
p2876
I-55
I51
tp2877
tp2878
Rp2879
(dp2880
g17
I53
sbg10
(g3
(g2628
g2637
tp2881
Rp2882
(dp2883
bg3
(g6
g10
(g3
(g2646
g121
g128
tp2884
Rp2885
(dp2886
bg3
(g2655
g162
g166
tp2887
Rp2888
(dp2889
btp2890
Rp2891
(dp2892
bg10
(g11
((I0
S'3L'
p2893
I-2
I2
tp2894
tp2895
Rp2896
(dp2897
g17
I53
sbg3
(g11
((I0
S'47ae147ae147bL'
p2898
I-55
I51
tp2899
tp2900
Rp2901
(dp2902
g17
I53
sbg166
g121
tp2903
Rp2904
(dp2905
bg370
tp2906
Rp2907
(dp2908
btp2909
Rp2910
(dp2911
btp2912
Rp2913
(dp2914
bg2857
g2442
tp2915
Rp2916
(dp2917
btp2918
Rp2919
(dp2920
btp2921
Rp2922
(dp2923
baaa.