(lp0
(lp1
(lp2
csympy.core.mul
Mul
p3
(csympy.core.power
Pow
p4
(csympy.functions.elementary.complexes
Abs
p5
(csympy.functions.elementary.trigonometric
cos
p6
(csympy.core.add
Add
p7
(csympy.core.numbers
Float
p8
((I1
S'3243f6a8885a3L'
p9
I-49
I50
tp10
tp11
Rp12
(dp13
S'_prec'
p14
I53
sbcsympy.core.symbol
Symbol
p15
(S'theta'
p16
tp17
Rp18
(dp19
S'_assumptions'
p20
ccopy_reg
_reconstructor
p21
(csympy.core.assumptions
StdFactKB
p22
c__builtin__
dict
p23
(dp24
S'real'
p25
I01
sS'even'
p26
NsS'irrational'
p27
NsS'antihermitian'
p28
NsS'nonpositive'
p29
NsS'composite'
p30
NsS'algebraic'
p31
NsS'zero'
p32
NsS'infinite'
p33
NsS'integer'
p34
NsS'hermitian'
p35
I01
sS'odd'
p36
NsS'imaginary'
p37
I00
sS'prime'
p38
NsS'commutative'
p39
I01
sS'positive'
p40
NsS'negative'
p41
NsS'nonnegative'
p42
NsS'complex'
p43
I01
sS'rational'
p44
NsS'finite'
p45
Nstp46
Rp47
(dp48
S'_generator'
p49
(dp50
g25
I01
ssbsbtp51
Rp52
(dp53
btp54
Rp55
(dp56
btp57
Rp58
(dp59
bcsympy.core.numbers
NegativeOne
p60
(I-1
tp61
Rp62
(dp63
btp64
Rp65
(dp66
bcsympy.functions.elementary.complexes
sign
p67
(g7
(g8
((I1
S'3L'
p68
I-2
I2
tp69
tp70
Rp71
(dp72
g14
I53
sbg15
(S'x'
p73
tp74
Rp75
(dp76
g20
g21
(g22
g23
(dp77
g25
I01
sg27
Nsg28
Nsg29
Nsg31
Nsg32
Nsg33
Nsg34
Nsg35
I01
sg36
Nsg37
I00
sg26
Nsg39
I01
sg40
Nsg41
Nsg42
Nsg43
I01
sg44
Nsg45
Nstp78
Rp79
(dp80
g49
(dp81
g25
I01
ssbsbg3
(g8
((I0
S'c49ba5e353f7dL'
p82
I-58
I52
tp83
tp84
Rp85
(dp86
g14
I53
sbg6
(g18
tp87
Rp88
(dp89
btp90
Rp91
(dp92
btp93
Rp94
(dp95
btp96
Rp97
(dp98
btp99
Rp100
(dp101
bacsympy.core.numbers
Zero
p102
(I0
tp103
Rp104
(dp105
bag7
(g3
(g8
((I1
S'c49ba5e353f7dL'
p106
I-58
I52
tp107
tp108
Rp109
(dp110
g14
I53
sbg65
g97
csympy.functions.elementary.trigonometric
sin
p111
(g18
tp112
Rp113
(dp114
btp115
Rp116
(dp117
bg3
(g4
(g55
csympy.core.numbers
Integer
p118
(I-2
tp119
Rp120
(dp121
btp122
Rp123
(dp124
bg5
(g7
(g8
((I1
S'3L'
p125
I-2
I2
tp126
tp127
Rp128
(dp129
g14
I53
sbg75
g91
tp130
Rp131
(dp132
btp133
Rp134
(dp135
bg67
(g55
tp136
Rp137
(dp138
bg111
(g52
tp139
Rp140
(dp141
btp142
Rp143
(dp144
btp145
Rp146
(dp147
baa(lp148
g104
ag3
(g62
g4
(g5
(g140
tp149
Rp150
(dp151
bg62
tp152
Rp153
(dp154
bg67
(g7
(g8
((I0
S'3L'
p155
I-2
I2
tp156
tp157
Rp158
(dp159
g14
I53
sbg3
(g62
g15
(S'y'
p160
tp161
Rp162
(dp163
g20
g21
(g22
g23
(dp164
g25
I01
sS'polar'
p165
Nsg35
I01
sg27
Nsg28
Nsg29
Nsg30
Nsg31
Nsg32
Nsg33
Nsg34
Nsg37
I00
sg36
Nsg26
Nsg39
I01
sg40
Nsg41
Nsg42
Nsg38
Nsg43
I01
sg44
Nsg45
Nstp166
Rp167
(dp168
g49
(dp169
g25
I01
ssbsbtp170
Rp171
(dp172
bg3
(g8
((I0
S'47ae147ae147bL'
p173
I-55
I51
tp174
tp175
Rp176
(dp177
g14
I53
sbg113
tp178
Rp179
(dp180
btp181
Rp182
(dp183
btp184
Rp185
(dp186
btp187
Rp188
(dp189
bag7
(g3
(g8
((I0
S'47ae147ae147bL'
p190
I-55
I51
tp191
tp192
Rp193
(dp194
g14
I53
sbg153
g88
g185
tp195
Rp196
(dp197
bg3
(g62
g4
(g140
g120
tp198
Rp199
(dp200
bg5
(g7
(g8
((I0
S'3L'
p201
I-2
I2
tp202
tp203
Rp204
(dp205
g14
I53
sbg171
g3
(g8
((I0
S'47ae147ae147bL'
p206
I-55
I51
tp207
tp208
Rp209
(dp210
g14
I53
sbg113
tp211
Rp212
(dp213
btp214
Rp215
(dp216
btp217
Rp218
(dp219
bg55
g67
(g140
tp220
Rp221
(dp222
btp223
Rp224
(dp225
btp226
Rp227
(dp228
baa(lp229
g3
(g65
g67
(g7
(g8
((I0
S'3L'
p230
I-2
I2
tp231
tp232
Rp233
(dp234
g14
I53
sbg75
g91
tp235
Rp236
(dp237
btp238
Rp239
(dp240
btp241
Rp242
(dp243
bag104
ag7
(g3
(g8
((I1
S'c49ba5e353f7dL'
p244
I-58
I52
tp245
tp246
Rp247
(dp248
g14
I53
sbg65
g239
g113
tp249
Rp250
(dp251
bg3
(g123
g5
(g7
(g8
((I0
S'3L'
p252
I-2
I2
tp253
tp254
Rp255
(dp256
g14
I53
sbg75
g91
tp257
Rp258
(dp259
btp260
Rp261
(dp262
bg137
g140
tp263
Rp264
(dp265
btp266
Rp267
(dp268
baa(lp269
g104
ag3
(g153
g67
(g7
(g8
((I0
S'3L'
p270
I-2
I2
tp271
tp272
Rp273
(dp274
g14
I53
sbg162
g3
(g8
((I1
S'47ae147ae147bL'
p275
I-55
I51
tp276
tp277
Rp278
(dp279
g14
I53
sbg113
tp280
Rp281
(dp282
btp283
Rp284
(dp285
btp286
Rp287
(dp288
btp289
Rp290
(dp291
bag7
(g3
(g8
((I1
S'47ae147ae147bL'
p292
I-55
I51
tp293
tp294
Rp295
(dp296
g14
I53
sbg153
g88
g287
tp297
Rp298
(dp299
bg3
(g62
g199
g5
(g7
(g8
((I0
S'3L'
p300
I-2
I2
tp301
tp302
Rp303
(dp304
g14
I53
sbg162
g281
tp305
Rp306
(dp307
btp308
Rp309
(dp310
bg55
g221
tp311
Rp312
(dp313
btp314
Rp315
(dp316
baaa(lp317
(lp318
g3
(g4
(g5
(g6
(g7
(g8
((I1
S'10c152382d7365L'
p319
I-52
I53
tp320
tp321
Rp322
(dp323
g14
I53
sbg18
tp324
Rp325
(dp326
btp327
Rp328
(dp329
btp330
Rp331
(dp332
bg62
tp333
Rp334
(dp335
bg67
(g7
(g8
((I1
S'3L'
p336
I-2
I2
tp337
tp338
Rp339
(dp340
g14
I53
sbg75
g3
(g8
((I0
S'795810624dd2fL'
p341
I-54
I51
tp342
tp343
Rp344
(dp345
g14
I53
sbg88
tp346
Rp347
(dp348
btp349
Rp350
(dp351
btp352
Rp353
(dp354
btp355
Rp356
(dp357
bag104
ag7
(g3
(g8
((I1
S'795810624dd2fL'
p358
I-54
I51
tp359
tp360
Rp361
(dp362
g14
I53
sbg334
g353
g113
tp363
Rp364
(dp365
bg3
(g4
(g328
g120
tp366
Rp367
(dp368
bg5
(g7
(g8
((I1
S'3L'
p369
I-2
I2
tp370
tp371
Rp372
(dp373
g14
I53
sbg75
g347
tp374
Rp375
(dp376
btp377
Rp378
(dp379
bg67
(g328
tp380
Rp381
(dp382
bg111
(g325
tp383
Rp384
(dp385
btp386
Rp387
(dp388
btp389
Rp390
(dp391
baa(lp392
g104
ag3
(g62
g4
(g5
(g384
tp393
Rp394
(dp395
bg62
tp396
Rp397
(dp398
bg67
(g7
(g8
((I0
S'3L'
p399
I-2
I2
tp400
tp401
Rp402
(dp403
g14
I53
sbg171
g3
(g8
((I0
S'b851eb851eb85L'
p404
I-57
I52
tp405
tp406
Rp407
(dp408
g14
I53
sbg113
tp409
Rp410
(dp411
btp412
Rp413
(dp414
btp415
Rp416
(dp417
btp418
Rp419
(dp420
bag7
(g3
(g8
((I0
S'b851eb851eb85L'
p421
I-57
I52
tp422
tp423
Rp424
(dp425
g14
I53
sbg397
g88
g416
tp426
Rp427
(dp428
bg3
(g62
g4
(g384
g120
tp429
Rp430
(dp431
bg5
(g7
(g8
((I0
S'3L'
p432
I-2
I2
tp433
tp434
Rp435
(dp436
g14
I53
sbg171
g3
(g8
((I0
S'b851eb851eb85L'
p437
I-57
I52
tp438
tp439
Rp440
(dp441
g14
I53
sbg113
tp442
Rp443
(dp444
btp445
Rp446
(dp447
btp448
Rp449
(dp450
bg328
g67
(g384
tp451
Rp452
(dp453
btp454
Rp455
(dp456
btp457
Rp458
(dp459
baa(lp460
g3
(g334
g67
(g7
(g8
((I0
S'3L'
p461
I-2
I2
tp462
tp463
Rp464
(dp465
g14
I53
sbg75
g347
tp466
Rp467
(dp468
btp469
Rp470
(dp471
btp472
Rp473
(dp474
bag104
ag7
(g3
(g8
((I1
S'795810624dd2fL'
p475
I-54
I51
tp476
tp477
Rp478
(dp479
g14
I53
sbg334
g470
g113
tp480
Rp481
(dp482
bg3
(g367
g5
(g7
(g8
((I0
S'3L'
p483
I-2
I2
tp484
tp485
Rp486
(dp487
g14
I53
sbg75
g347
tp488
Rp489
(dp490
btp491
Rp492
(dp493
bg381
g384
tp494
Rp495
(dp496
btp497
Rp498
(dp499
baa(lp500
g104
ag3
(g397
g67
(g7
(g8
((I0
S'3L'
p501
I-2
I2
tp502
tp503
Rp504
(dp505
g14
I53
sbg162
g3
(g8
((I1
S'b851eb851eb85L'
p506
I-57
I52
tp507
tp508
Rp509
(dp510
g14
I53
sbg113
tp511
Rp512
(dp513
btp514
Rp515
(dp516
btp517
Rp518
(dp519
btp520
Rp521
(dp522
bag7
(g3
(g8
((I1
S'b851eb851eb85L'
p523
I-57
I52
tp524
tp525
Rp526
(dp527
g14
I53
sbg397
g88
g518
tp528
Rp529
(dp530
bg3
(g62
g430
g5
(g7
(g8
((I0
S'3L'
p531
I-2
I2
tp532
tp533
Rp534
(dp535
g14
I53
sbg162
g512
tp536
Rp537
(dp538
btp539
Rp540
(dp541
bg328
g452
tp542
Rp543
(dp544
btp545
Rp546
(dp547
baaa(lp548
(lp549
g3
(g4
(g5
(g88
tp550
Rp551
(dp552
bg62
tp553
Rp554
(dp555
bg67
(g7
(g8
((I1
S'3L'
p556
I-2
I2
tp557
tp558
Rp559
(dp560
g14
I53
sbg75
g3
(g8
((I0
S'4189374bc6a7fL'
p561
I-53
I51
tp562
tp563
Rp564
(dp565
g14
I53
sbg88
tp566
Rp567
(dp568
btp569
Rp570
(dp571
btp572
Rp573
(dp574
btp575
Rp576
(dp577
bag104
ag3
(g7
(g3
(g8
((I1
S'4189374bc6a7fL'
p578
I-53
I51
tp579
tp580
Rp581
(dp582
g14
I53
sbg554
g573
tp583
Rp584
(dp585
bg3
(g8
((I0
S'1L'
p586
I0
I1
tp587
tp588
Rp589
(dp590
g14
I53
sbg4
(g88
g120
tp591
Rp592
(dp593
bg5
(g7
(g8
((I1
S'3L'
p594
I-2
I2
tp595
tp596
Rp597
(dp598
g14
I53
sbg75
g567
tp599
Rp600
(dp601
btp602
Rp603
(dp604
bg67
(g88
tp605
Rp606
(dp607
btp608
Rp609
(dp610
btp611
Rp612
(dp613
bg113
tp614
Rp615
(dp616
baa(lp617
g104
ag3
(g4
(g5
(g113
tp618
Rp619
(dp620
bg62
tp621
Rp622
(dp623
bg67
(g7
(g8
((I1
S'3L'
p624
I-2
I2
tp625
tp626
Rp627
(dp628
g14
I53
sbg162
tp629
Rp630
(dp631
btp632
Rp633
(dp634
btp635
Rp636
(dp637
bag3
(g62
g4
(g113
g120
tp638
Rp639
(dp640
bg5
(g7
(g8
((I1
S'3L'
p641
I-2
I2
tp642
tp643
Rp644
(dp645
g14
I53
sbg162
tp646
Rp647
(dp648
btp649
Rp650
(dp651
bg88
g67
(g113
tp652
Rp653
(dp654
btp655
Rp656
(dp657
baa(lp658
g3
(g554
g67
(g7
(g8
((I0
S'3L'
p659
I-2
I2
tp660
tp661
Rp662
(dp663
g14
I53
sbg75
g567
tp664
Rp665
(dp666
btp667
Rp668
(dp669
btp670
Rp671
(dp672
bag104
ag3
(g7
(g3
(g8
((I1
S'4189374bc6a7fL'
p673
I-53
I51
tp674
tp675
Rp676
(dp677
g14
I53
sbg554
g668
tp678
Rp679
(dp680
bg3
(g8
((I0
S'1L'
p681
I0
I1
tp682
tp683
Rp684
(dp685
g14
I53
sbg592
g5
(g7
(g8
((I0
S'3L'
p686
I-2
I2
tp687
tp688
Rp689
(dp690
g14
I53
sbg75
g567
tp691
Rp692
(dp693
btp694
Rp695
(dp696
bg606
tp697
Rp698
(dp699
btp700
Rp701
(dp702
bg113
tp703
Rp704
(dp705
baa(lp706
g104
ag3
(g622
g67
(g7
(g8
((I0
S'3L'
p707
I-2
I2
tp708
tp709
Rp710
(dp711
g14
I53
sbg162
tp712
Rp713
(dp714
btp715
Rp716
(dp717
btp718
Rp719
(dp720
bag3
(g62
g639
g5
(g7
(g8
((I0
S'3L'
p721
I-2
I2
tp722
tp723
Rp724
(dp725
g14
I53
sbg162
tp726
Rp727
(dp728
btp729
Rp730
(dp731
bg88
g653
tp732
Rp733
(dp734
baaa(lp735
(lp736
g3
(g4
(g5
(g6
(g7
(g8
((I0
S'10c152382d7365L'
p737
I-52
I53
tp738
tp739
Rp740
(dp741
g14
I53
sbg18
tp742
Rp743
(dp744
btp745
Rp746
(dp747
btp748
Rp749
(dp750
bg62
tp751
Rp752
(dp753
bg353
tp754
Rp755
(dp756
bag104
ag7
(g3
(g8
((I1
S'795810624dd2fL'
p757
I-54
I51
tp758
tp759
Rp760
(dp761
g14
I53
sbg752
g353
g113
tp762
Rp763
(dp764
bg3
(g4
(g746
g120
tp765
Rp766
(dp767
bg378
g67
(g746
tp768
Rp769
(dp770
bg111
(g743
tp771
Rp772
(dp773
btp774
Rp775
(dp776
btp777
Rp778
(dp779
baa(lp780
g104
ag3
(g4
(g5
(g772
tp781
Rp782
(dp783
bg62
tp784
Rp785
(dp786
bg67
(g7
(g8
((I1
S'3L'
p787
I-2
I2
tp788
tp789
Rp790
(dp791
g14
I53
sbg162
g410
tp792
Rp793
(dp794
btp795
Rp796
(dp797
btp798
Rp799
(dp800
bag7
(g3
(g8
((I0
S'b851eb851eb85L'
p801
I-57
I52
tp802
tp803
Rp804
(dp805
g14
I53
sbg785
g88
g796
tp806
Rp807
(dp808
bg3
(g62
g4
(g772
g120
tp809
Rp810
(dp811
bg5
(g7
(g8
((I1
S'3L'
p812
I-2
I2
tp813
tp814
Rp815
(dp816
g14
I53
sbg162
g410
tp817
Rp818
(dp819
btp820
Rp821
(dp822
bg746
g67
(g772
tp823
Rp824
(dp825
btp826
Rp827
(dp828
btp829
Rp830
(dp831
baa(lp832
g3
(g752
g470
tp833
Rp834
(dp835
bag104
ag7
(g3
(g8
((I1
S'795810624dd2fL'
p836
I-54
I51
tp837
tp838
Rp839
(dp840
g14
I53
sbg752
g470
g113
tp841
Rp842
(dp843
bg3
(g766
g492
g769
g772
tp844
Rp845
(dp846
btp847
Rp848
(dp849
baa(lp850
g104
ag3
(g785
g67
(g7
(g8
((I0
S'3L'
p851
I-2
I2
tp852
tp853
Rp854
(dp855
g14
I53
sbg162
g410
tp856
Rp857
(dp858
btp859
Rp860
(dp861
btp862
Rp863
(dp864
bag7
(g3
(g8
((I0
S'b851eb851eb85L'
p865
I-57
I52
tp866
tp867
Rp868
(dp869
g14
I53
sbg785
g88
g860
tp870
Rp871
(dp872
bg3
(g62
g810
g5
(g7
(g8
((I0
S'3L'
p873
I-2
I2
tp874
tp875
Rp876
(dp877
g14
I53
sbg162
g410
tp878
Rp879
(dp880
btp881
Rp882
(dp883
bg746
g824
tp884
Rp885
(dp886
btp887
Rp888
(dp889
baaa(lp890
(lp891
g3
(g4
(g5
(g6
(g7
(g8
((I0
S'3243f6a8885a3L'
p892
I-49
I50
tp893
tp894
Rp895
(dp896
g14
I53
sbg18
tp897
Rp898
(dp899
btp900
Rp901
(dp902
btp903
Rp904
(dp905
bg62
tp906
Rp907
(dp908
bg97
tp909
Rp910
(dp911
bag104
ag7
(g3
(g8
((I1
S'c49ba5e353f7dL'
p912
I-58
I52
tp913
tp914
Rp915
(dp916
g14
I53
sbg907
g97
g113
tp917
Rp918
(dp919
bg3
(g4
(g901
g120
tp920
Rp921
(dp922
bg134
g67
(g901
tp923
Rp924
(dp925
bg111
(g898
tp926
Rp927
(dp928
btp929
Rp930
(dp931
btp932
Rp933
(dp934
baa(lp935
g104
ag3
(g4
(g5
(g927
tp936
Rp937
(dp938
bg62
tp939
Rp940
(dp941
bg67
(g7
(g8
((I1
S'3L'
p942
I-2
I2
tp943
tp944
Rp945
(dp946
g14
I53
sbg162
g179
tp947
Rp948
(dp949
btp950
Rp951
(dp952
btp953
Rp954
(dp955
bag7
(g3
(g8
((I0
S'47ae147ae147bL'
p956
I-55
I51
tp957
tp958
Rp959
(dp960
g14
I53
sbg940
g88
g951
tp961
Rp962
(dp963
bg3
(g62
g4
(g927
g120
tp964
Rp965
(dp966
bg5
(g7
(g8
((I1
S'3L'
p967
I-2
I2
tp968
tp969
Rp970
(dp971
g14
I53
sbg162
g179
tp972
Rp973
(dp974
btp975
Rp976
(dp977
bg901
g67
(g927
tp978
Rp979
(dp980
btp981
Rp982
(dp983
btp984
Rp985
(dp986
baa(lp987
g3
(g907
g239
tp988
Rp989
(dp990
bag104
ag7
(g3
(g8
((I1
S'c49ba5e353f7dL'
p991
I-58
I52
tp992
tp993
Rp994
(dp995
g14
I53
sbg907
g239
g113
tp996
Rp997
(dp998
bg3
(g921
g261
g924
g927
tp999
Rp1000
(dp1001
btp1002
Rp1003
(dp1004
baa(lp1005
g104
ag3
(g940
g67
(g7
(g8
((I0
S'3L'
p1006
I-2
I2
tp1007
tp1008
Rp1009
(dp1010
g14
I53
sbg162
g179
tp1011
Rp1012
(dp1013
btp1014
Rp1015
(dp1016
btp1017
Rp1018
(dp1019
bag7
(g3
(g8
((I0
S'47ae147ae147bL'
p1020
I-55
I51
tp1021
tp1022
Rp1023
(dp1024
g14
I53
sbg940
g88
g1015
tp1025
Rp1026
(dp1027
bg3
(g62
g965
g5
(g7
(g8
((I0
S'3L'
p1028
I-2
I2
tp1029
tp1030
Rp1031
(dp1032
g14
I53
sbg162
g179
tp1033
Rp1034
(dp1035
btp1036
Rp1037
(dp1038
bg901
g979
tp1039
Rp1040
(dp1041
btp1042
Rp1043
(dp1044
baaa.